BL51 BANKED LINKER/LOCATER V6.22.2.0                                                    01/20/2021  15:22:28  PAGE 1


BL51 BANKED LINKER/LOCATER V6.22.2.0, INVOKED BY:
C:\KEIL_V5\C51\BIN\BL51.EXE .\Objects\DataTrans.obj, .\Objects\pc.obj, .\Objects\TstBrdContrl.obj, .\Objects\DelayTime.o
>> bj, .\Objects\SystemInit.obj, .\Objects\MainPro.obj, .\Objects\Chamber.obj, .\Objects\cfguo.obj, .\Objects\NewPower.o
>> bj, .\Objects\Crc16_MODBUS.obj, .\Objects\CH395CMD.obj TO .\Objects\BackBrdDrv 4point PRINT (.\Listings\BackBrdDrv 4p
>> oint.m51) RAMSIZE (256)


MEMORY MODEL: LARGE WITH FLOATING POINT ARITHMETIC


INPUT MODULES INCLUDED:
  .\Objects\DataTrans.obj (DATATRANS)
  .\Objects\pc.obj (PC)
  .\Objects\TstBrdContrl.obj (TSTBRDCONTRL)
  .\Objects\DelayTime.obj (DELAYTIME)
  .\Objects\SystemInit.obj (SYSTEMINIT)
  .\Objects\MainPro.obj (MAINPRO)
  .\Objects\Chamber.obj (CHAMBER)
  .\Objects\cfguo.obj (CFGUO)
  .\Objects\NewPower.obj (NEWPOWER)
  .\Objects\Crc16_MODBUS.obj (CRC16_MODBUS)
  .\Objects\CH395CMD.obj (CH395CMD)
  C:\KEIL_V5\C51\LIB\C51FPL.LIB (?C?FPADD)
  C:\KEIL_V5\C51\LIB\C51FPL.LIB (?C?FPMUL)
  C:\KEIL_V5\C51\LIB\C51FPL.LIB (?C?FPDIV)
  C:\KEIL_V5\C51\LIB\C51FPL.LIB (?C?FPCMP)
  C:\KEIL_V5\C51\LIB\C51FPL.LIB (?C?FCAST)
  C:\KEIL_V5\C51\LIB\C51FPL.LIB (?C?CASTF)
  C:\KEIL_V5\C51\LIB\C51FPL.LIB (PRINTF)
  C:\KEIL_V5\C51\LIB\C51FPL.LIB (FABS)
  C:\KEIL_V5\C51\LIB\C51FPL.LIB (ATOF)
  C:\KEIL_V5\C51\LIB\C51FPL.LIB (?C?FPGETOPN)
  C:\KEIL_V5\C51\LIB\C51FPL.LIB (?C?FPROUND)
  C:\KEIL_V5\C51\LIB\C51FPL.LIB (?C?FPCONVERT)
  C:\KEIL_V5\C51\LIB\C51FPL.LIB (?C?ATOF)
  C:\KEIL_V5\C51\LIB\C51FPL.LIB (?C?FPNEG)
  C:\KEIL_V5\C51\LIB\C51FPL.LIB (?C?FTNPWR)
  C:\KEIL_V5\C51\LIB\C51L.LIB (?C_STARTUP)
  C:\KEIL_V5\C51\LIB\C51L.LIB (?C?COPY)
  C:\KEIL_V5\C51\LIB\C51L.LIB (?C?SCDIV)
  C:\KEIL_V5\C51\LIB\C51L.LIB (?C?CLDPTR)
  C:\KEIL_V5\C51\LIB\C51L.LIB (?C?CLDOPTR)
  C:\KEIL_V5\C51\LIB\C51L.LIB (?C?CSTPTR)
  C:\KEIL_V5\C51\LIB\C51L.LIB (?C?CSTOPTR)
  C:\KEIL_V5\C51\LIB\C51L.LIB (?C?IMUL)
  C:\KEIL_V5\C51\LIB\C51L.LIB (?C?IILDX)
  C:\KEIL_V5\C51\LIB\C51L.LIB (?C?ILDIX)
  C:\KEIL_V5\C51\LIB\C51L.LIB (?C?ILDPTR)
  C:\KEIL_V5\C51\LIB\C51L.LIB (?C?ILDOPTR)
  C:\KEIL_V5\C51\LIB\C51L.LIB (?C?ISTPTR)
  C:\KEIL_V5\C51\LIB\C51L.LIB (?C?ISTOPTR)
  C:\KEIL_V5\C51\LIB\C51L.LIB (?C?LNEG)
  C:\KEIL_V5\C51\LIB\C51L.LIB (?C?ULSHR)
  C:\KEIL_V5\C51\LIB\C51L.LIB (?C?LLDPTR)
  C:\KEIL_V5\C51\LIB\C51L.LIB (?C?LLDOPTR)
  C:\KEIL_V5\C51\LIB\C51L.LIB (?C?LSTPTR)
  C:\KEIL_V5\C51\LIB\C51L.LIB (?C?LSTOPTR)
  C:\KEIL_V5\C51\LIB\C51L.LIB (?C?LLDCODE)
BL51 BANKED LINKER/LOCATER V6.22.2.0                                                  01/20/2021  15:22:28  PAGE 2


  C:\KEIL_V5\C51\LIB\C51L.LIB (?C?LLDCODE0)
  C:\KEIL_V5\C51\LIB\C51L.LIB (?C?LSTXDATA)
  C:\KEIL_V5\C51\LIB\C51L.LIB (?C?LSTKXDATA)
  C:\KEIL_V5\C51\LIB\C51L.LIB (?C?LSTKPTR)
  C:\KEIL_V5\C51\LIB\C51L.LIB (?C?OFFXADD)
  C:\KEIL_V5\C51\LIB\C51L.LIB (?C?PLDIXDATA)
  C:\KEIL_V5\C51\LIB\C51L.LIB (?C?PSTXDATA)
  C:\KEIL_V5\C51\LIB\C51L.LIB (?C?CCASE)
  C:\KEIL_V5\C51\LIB\C51L.LIB (PUTCHAR)
  C:\KEIL_V5\C51\LIB\C51L.LIB (ISSPACE)
  C:\KEIL_V5\C51\LIB\C51L.LIB (STRLEN)
  C:\KEIL_V5\C51\LIB\C51L.LIB (STRSTR)
  C:\KEIL_V5\C51\LIB\C51L.LIB (ATOI)
  C:\KEIL_V5\C51\LIB\C51L.LIB (?C?MEMSET)
  C:\KEIL_V5\C51\LIB\C51L.LIB (?C_INIT)
  C:\KEIL_V5\C51\LIB\C51L.LIB (?C?LLDIDATA)
  C:\KEIL_V5\C51\LIB\C51L.LIB (?C?LLDXDATA)
  C:\KEIL_V5\C51\LIB\C51L.LIB (?C?LLDPDATA)
  C:\KEIL_V5\C51\LIB\C51L.LIB (?C?LSTIDATA)
  C:\KEIL_V5\C51\LIB\C51L.LIB (?C?LSTPDATA)
  C:\KEIL_V5\C51\LIB\C51L.LIB (?C?LSTKIDATA)
  C:\KEIL_V5\C51\LIB\C51L.LIB (?C?LSTKPDATA)
  C:\KEIL_V5\C51\LIB\C51L.LIB (ISDIGIT)


LINK MAP OF MODULE:  .\Objects\BackBrdDrv 4point (DATATRANS)


            TYPE    BASE      LENGTH    RELOCATION   SEGMENT NAME
            -----------------------------------------------------

            * * * * * * *   D A T A   M E M O R Y   * * * * * * *
            REG     0000H     0008H     ABSOLUTE     "REG BANK 0"
            DATA    0008H     0005H     UNIT         _DATA_GROUP_
                    000DH     000BH                  *** GAP ***
            REG     0018H     0008H     ABSOLUTE     "REG BANK 3"
            BIT     0020H.0   0001H.5   UNIT         _BIT_GROUP_
            BIT     0021H.5   0000H.2   UNIT         ?BI?SYSTEMINIT
                    0021H.7   0000H.1                *** GAP ***
            IDATA   0022H     0001H     UNIT         ?STACK

            * * * * * * *  X D A T A   M E M O R Y  * * * * * * *
            XDATA   0000H     0BBBH     UNIT         _XDATA_GROUP_
            XDATA   0BBBH     059AH     UNIT         ?XD?CHAMBER
            XDATA   1155H     00F1H     UNIT         ?XD?DATATRANS
            XDATA   1246H     00AEH     UNIT         ?XD?CH395CMD
            XDATA   12F4H     0054H     UNIT         ?XD?CFGUO
            XDATA   1348H     0022H     UNIT         ?XD?_WAITCHAMBERSTABLE?CHAMBER
            XDATA   136AH     0013H     UNIT         ?XD?TSTBRDCONTRL
            XDATA   137DH     0012H     UNIT         ?XD?MAINPRO
            XDATA   138FH     0004H     UNIT         ?XD?_CH395SETSTARTPARA?CH395CMD
            XDATA   1393H     0002H     UNIT         ?XD?DELAYTIME
            XDATA   1395H     0001H     UNIT         ?XD?PC

            * * * * * * *   C O D E   M E M O R Y   * * * * * * *
            CODE    0000H     0003H     ABSOLUTE     
            CODE    0003H     0003H     ABSOLUTE     
BL51 BANKED LINKER/LOCATER V6.22.2.0                                                  01/20/2021  15:22:28  PAGE 3


            CODE    0006H     0005H     UNIT         ?PR?RESETI2CPORT?NEWPOWER
            CODE    000BH     0003H     ABSOLUTE     
            CODE    000EH     0015H     UNIT         ?PR?I2CSTART?NEWPOWER
            CODE    0023H     0003H     ABSOLUTE     
            CODE    0026H     210BH     UNIT         ?PR?MAIN?MAINPRO
            CODE    2131H     0A2AH     UNIT         ?C?LIB_CODE
            CODE    2B5BH     0A28H     UNIT         ?PR?_WAITCHAMBERSTABLE?CHAMBER
            CODE    3583H     07BAH     UNIT         ?CO?MAINPRO
            CODE    3D3DH     0483H     UNIT         ?PR?PRINTF?PRINTF
            CODE    41C0H     0406H     UNIT         ?CO?CH395CMD
            CODE    45C6H     03CEH     UNIT         ?PR?_READTC18B20PACKAGEANDUSEPT100INDEX?PC
            CODE    4994H     02AFH     UNIT         ?PR?_READCHAMBERTEMPERATURE?CHAMBER
            CODE    4C43H     0214H     UNIT         ?CO?CFGUO
            CODE    4E57H     01F0H     UNIT         ?PR?_SETCHAMBERTEMPERATURE?CHAMBER
            CODE    5047H     01ECH     UNIT         ?PR?_READOPA544OUTPUTCURRENT?NEWPOWER
            CODE    5233H     01DEH     UNIT         ?PR?RECIEVEPRESSKEYCOMMANDFROMPC?SYSTEMINIT
            CODE    5411H     01D0H     UNIT         ?PR?_READDATAFROMADS1100?NEWPOWER
            CODE    55E1H     01AFH     UNIT         ?PR?_READTEMPERATUREDATAFROMTRIMINGBOARD?DATATRANS
            CODE    5790H     01A1H     UNIT         ?PR?_SET_LABCMD_FORMAT?CH395CMD
            CODE    5931H     0180H     UNIT         ?PR?_REV_DATA_FROM_CH375?CFGUO
            CODE    5AB1H     015DH     UNIT         ?PR?_CH395SOCKETINTERRUPT?CH395CMD
            CODE    5C0EH     0145H     UNIT         ?PR?_USARTINIT?DATATRANS
            CODE    5D53H     0136H     UNIT         ?PR?_REQUIRECFGUOALLCHANNELTEMPERATURE?CFGUO
            CODE    5E89H     010FH     UNIT         ?PR?_SETCHAMBERON?CHAMBER
            CODE    5F98H     010DH     UNIT         ?PR?_SETCHAMBEROFF?CHAMBER
            CODE    60A5H     0102H     UNIT         ?PR?_SETUSARTTWOPOSIONANDBTR?DATATRANS
            CODE    61A7H     00FCH     UNIT         ?PR?_CRC16_MODBUS?CRC16_MODBUS
            CODE    62A3H     00EBH     UNIT         ?PR?_SENDPT100DATATOTRIMINGBOARD?DATATRANS
            CODE    638EH     00E6H     UNIT         ?PR??C?ATOF??C?ATOF
            CODE    6474H     00DFH     UNIT         ?PR?CONFIG_FLUKE_MODE?CFGUO
            CODE    6553H     00DBH     UNIT         ?PR?_ATOI?ATOI
            CODE    662EH     00D5H     UNIT         ?PR?_REV_DATA_FROM_FLUKE?CFGUO
            CODE    6703H     00BFH     UNIT         ?PR?_STRSTR?STRSTR
            CODE    67C2H     00BDH     UNIT         ?PR?_SEARCHTESTMAINBOARD?TSTBRDCONTRL
            CODE    687FH     00B5H     UNIT         ?PR?_I2CWRITEDATATODEVICE?NEWPOWER
            CODE    6934H     00B2H     UNIT         ?PR?_SENDFLOATDATA?DATATRANS
            CODE    69E6H     00B2H     UNIT         ?PR?_SENDINTDATA?DATATRANS
            CODE    6A98H     00AAH     UNIT         ?PR?_INVERTUINT16?CRC16_MODBUS
            CODE    6B42H     009EH     UNIT         ?PR?_SENDTC18B20PACKAGETYPETOBOARD?DATATRANS
            CODE    6BE0H     009DH     UNIT         ?PR?_INVERTUINT8?CRC16_MODBUS
            CODE    6C7DH     009DH     UNIT         ?PR?CH395GLOBALINTERRUPT?CH395CMD
            CODE    6D1AH     0093H     UNIT         ?CO?CHAMBER
            CODE    6DADH     008CH     UNIT         ?PR?SET_LABCHAMBER_OFF?CH395CMD
            CODE    6E39H     008CH     UNIT         ?C_C51STARTUP
            CODE    6EC5H     008BH     UNIT         ?PR?_CH395GETRECVDATA?CH395CMD
            CODE    6F50H     0085H     UNIT         ?PR?REQUEST_LABCHAMBER_STATE?CH395CMD
            CODE    6FD5H     0080H     UNIT         ?PR?_SET_LABCHAMBER_TEMP?CH395CMD
            CODE    7055H     007DH     UNIT         ?PR?_WAITFORTRIMINGPROCESS?DATATRANS
            CODE    70D2H     007BH     UNIT         ?PR?_SENDSTRINGDATA?DATATRANS
            CODE    714DH     007AH     UNIT         ?PR?GET_OPER_STATUS?CFGUO
            CODE    71C7H     007AH     UNIT         ?PR?_CH395SETSOCKETDESIP?CH395CMD
            CODE    7241H     0076H     UNIT         ?PR?_SENDDATA?DATATRANS
            CODE    72B7H     0073H     UNIT         ?PR?_CH395SENDDATA?CH395CMD
            CODE    732AH     006FH     UNIT         ?PR?SYSTEMINIT?SYSTEMINIT
            CODE    7399H     006BH     UNIT         ?PR?GET_INT_STATUS?CFGUO
            CODE    7404H     0066H     UNIT         ?PR?_ENDALLPROCESS?TSTBRDCONTRL
            CODE    746AH     0062H     UNIT         ?PR?_SETVOLTAGE?NEWPOWER
BL51 BANKED LINKER/LOCATER V6.22.2.0                                                  01/20/2021  15:22:28  PAGE 4


            CODE    74CCH     0061H     UNIT         ?PR?_SETTSTBRDPOWERON?TSTBRDCONTRL
            CODE    752DH     0061H     UNIT         ?PR?_UART4_SENDFLUKECMD?CFGUO
            CODE    758EH     005EH     UNIT         ?PR?CONFIG_CH375?CFGUO
            CODE    75ECH     005DH     UNIT         ?PR?CH395SOCKETINITOPEN?CH395CMD
            CODE    7649H     005BH     UNIT         ?PR?INIT_CH395_LABCHAM_CONNECT?CH395CMD
            CODE    76A4H     0056H     UNIT         ?PR?_CH395SETSTARTPARA?CH395CMD
            CODE    76FAH     0056H     UNIT         ?PR?_CH395KEEPLIVEIDLE?CH395CMD
            CODE    7750H     0056H     UNIT         ?PR?_CH395KEEPLIVEINTVL?CH395CMD
            CODE    77A6H     0050H     UNIT         ?C_INITSEG
            CODE    77F6H     0050H     UNIT         ?PR?INITSOCKETPARAM?CH395CMD
            CODE    7846H     004DH     UNIT         ?PR?_ACQURIE_LABCHAM_ACTUALTEMP?CH395CMD
            CODE    7893H     004AH     UNIT         ?PR?_ISSUE_TOKEN?CFGUO
            CODE    78DDH     0049H     UNIT         ?PR?INITCH395INFPARAM?CH395CMD
            CODE    7926H     0049H     UNIT         ?PR?ATOF?ATOF
            CODE    796FH     0047H     UNIT         ?PR?_CH395OPENSOCKET?CH395CMD
            CODE    79B6H     0047H     UNIT         ?PR?_CH395TCPCONNECT?CH395CMD
            CODE    79FDH     0044H     UNIT         ?PR?_CH395CMDSETIPADDR?CH395CMD
            CODE    7A41H     0044H     UNIT         ?PR?_CH395CMDSETGWIPADDR?CH395CMD
            CODE    7A85H     0044H     UNIT         ?PR?_CH395CMDSETMASKADDR?CH395CMD
            CODE    7AC9H     0044H     UNIT         ?PR?_CH395CMDGETUNREACHIPPT?CH395CMD
            CODE    7B0DH     0042H     UNIT         ?PR?_WRITEDATATOMAX5821?NEWPOWER
            CODE    7B4FH     0041H     UNIT         ?PR?CH395INIT?CH395CMD
            CODE    7B90H     003CH     UNIT         ?PR?CH395CMDINITCH395?CH395CMD
            CODE    7BCCH     003AH     UNIT         ?PR?_USARTINTERRUPT?DATATRANS
            CODE    7C06H     0037H     UNIT         ?PR?_CH395GETRECVLENGTH?CH395CMD
            CODE    7C3DH     0036H     UNIT         ?PR?_SENDINTDATATOPC?PC
            CODE    7C73H     0036H     UNIT         ?PR?CH395_LABCHAM_VARI_INIT?CH395CMD
            CODE    7CA9H     0033H     UNIT         ?PR?_MSTOPIFERROR?CH395CMD
            CODE    7CDCH     0032H     UNIT         ?PR?_SENDCMDTOLABCHAMBER?CH395CMD
            CODE    7D0EH     0031H     UNIT         ?PR?_SENDFLOATDATATOPC?PC
            CODE    7D3FH     0030H     UNIT         ?PR?_DELAY_MS?DELAYTIME
            CODE    7D6FH     0030H     UNIT         ?CO?SYSTEMINIT
            CODE    7D9FH     002EH     UNIT         ?PR?DELAY100MS?SYSTEMINIT
            CODE    7DCDH     002DH     UNIT         ?CO?PC
            CODE    7DFAH     002DH     UNIT         ?PR?_CH395SETSOCKETDESPORT?CH395CMD
            CODE    7E27H     002DH     UNIT         ?PR?_CH395SETSOCKETSOURPORT?CH395CMD
            CODE    7E54H     0028H     UNIT         ?CO?DATATRANS
            CODE    7E7CH     0027H     UNIT         ?PR?_CH375_USB_MODE?CFGUO
            CODE    7EA3H     0027H     UNIT         ?PR?PUTCHAR?PUTCHAR
            CODE    7ECAH     0025H     UNIT         ?PR?DELAY_5US?DELAYTIME
            CODE    7EEFH     0025H     UNIT         ?PR?DELAY_60US?DELAYTIME
            CODE    7F14H     0023H     UNIT         ?PR?_SENDSTRINGDATATOPC?PC
            CODE    7F37H     0023H     UNIT         ?PR?KEEPLIVE_SET?CH395CMD
            CODE    7F5AH     0020H     UNIT         ?PR?_CH395SETSOCKETPROTTYPE?CH395CMD
            CODE    7F7AH     001FH     UNIT         ?PR?_WR_HOST_OUT_BUF?CFGUO
            CODE    7F99H     001EH     UNIT         ?PR?_CH395SETKEEPLIVE?CH395CMD
            CODE    7FB7H     001CH     UNIT         ?PR?STARTPROCESS?SYSTEMINIT
            CODE    7FD3H     001CH     UNIT         ?PR?TRIMINGBOARDCOLLECTOR?SYSTEMINIT
            CODE    7FEFH     001BH     UNIT         ?PR?_CH395GETSOCKETINT?CH395CMD
            CODE    800AH     0018H     UNIT         ?PR?USB_DEV_AUTOSET?CFGUO
            CODE    8022H     0018H     UNIT         ?PR?SET_HOST_POINT_REV?CFGUO
            CODE    803AH     0018H     UNIT         ?PR?SET_HOST_POINT_SEND?CFGUO
            CODE    8052H     0018H     UNIT         ?PR?_CH395CMDCHECKEXIST?CH395CMD
            CODE    806AH     0016H     UNIT         ?PR?UART4_INIT?SYSTEMINIT
            CODE    8080H     0016H     UNIT         ?PR?SCANPRESSKEY?SYSTEMINIT
            CODE    8096H     0015H     UNIT         ?PR?_STRLEN?STRLEN
            CODE    80ABH     0014H     UNIT         ?PR?_ISSPACE?ISSPACE
BL51 BANKED LINKER/LOCATER V6.22.2.0                                                  01/20/2021  15:22:28  PAGE 5


            CODE    80BFH     0013H     UNIT         ?PR?TIMER0INTERRUPT?DELAYTIME
            CODE    80D2H     0013H     UNIT         ?PR?_CH395KEEPLIVECNT?CH395CMD
            CODE    80E5H     0010H     UNIT         ?PR?I2CSTOP?NEWPOWER
            CODE    80F5H     000FH     UNIT         ?PR?_XWRITECH395CMD?SYSTEMINIT
            CODE    8104H     000FH     UNIT         ?PR?_ISDIGIT?ISDIGIT
            CODE    8113H     000EH     UNIT         ?PR?_UART4_SEND375CMD?CFGUO
            CODE    8121H     000EH     UNIT         ?PR?_UART4_SEND375DATA?CFGUO
            CODE    812FH     000DH     UNIT         ?PR?_SPI395EXCHANGE?SYSTEMINIT
            CODE    813CH     000DH     UNIT         ?PR?CH375_RESET?CFGUO
            CODE    8149H     000DH     UNIT         ?PR?I2CDEVICEACK?NEWPOWER
            CODE    8156H     000DH     UNIT         ?PR?_FABS?FABS
            CODE    8163H     000CH     UNIT         ?PR?_SEND_CMD_TO_FLUKE?CFGUO
            CODE    816FH     000BH     UNIT         ?PR?CH395CMDGETPHYSTATUS?CH395CMD
            CODE    817AH     000BH     UNIT         ?PR?CH395CMDGETGLOBINTSTATUS?CH395CMD
            CODE    8185H     000BH     UNIT         ?PR?CH395GETCMDSTATUS?CH395CMD
            CODE    8190H     000AH     UNIT         ?CO?TSTBRDCONTRL
            CODE    819AH     000AH     UNIT         ?PR?SPI_INIT?SYSTEMINIT
            CODE    81A4H     0008H     UNIT         ?CO?NEWPOWER
            CODE    81ACH     0008H     UNIT         ?PR?CH395CMDRESET?CH395CMD
            CODE    81B4H     0006H     UNIT         ?PR?XREADCH395DATA?SYSTEMINIT
            CODE    81BAH     0004H     UNIT         ?PR?TSTBRDPOWERINIT?TSTBRDCONTRL
            CODE    81BEH     0004H     UNIT         ?PR?_XWRITECH395DATA?SYSTEMINIT



OVERLAY MAP OF MODULE:   .\Objects\BackBrdDrv 4point (DATATRANS)


SEGMENT                                             BIT_GROUP          DATA_GROUP          XDATA_GROUP
  +--> CALLED SEGMENT                            START    LENGTH     START    LENGTH     START    LENGTH
--------------------------------------------------------------------------------------------------------
?PR?SCANPRESSKEY?SYSTEMINIT                      -----    -----      -----    -----      -----    -----
  +--> ?PR?DELAY100MS?SYSTEMINIT

*** NEW ROOT ***************************************************

?PR?RECIEVEPRESSKEYCOMMANDFROMPC?SYST...         -----    -----      -----    -----      -----    -----
  +--> ?CO?SYSTEMINIT
  +--> ?PR?_STRSTR?STRSTR

?PR?_STRSTR?STRSTR                               -----    -----      -----    -----      0989H    000CH

*** NEW ROOT ***************************************************

?C_C51STARTUP                                    -----    -----      -----    -----      -----    -----
  +--> ?PR?MAIN?MAINPRO
  +--> ?C_INITSEG

?PR?MAIN?MAINPRO                                 0020H.0  0000H.4    -----    -----      000CH    096BH
  +--> ?PR?SYSTEMINIT?SYSTEMINIT
  +--> ?PR?_DELAY_MS?DELAYTIME
  +--> ?CO?MAINPRO
  +--> ?PR?_SENDSTRINGDATATOPC?PC
  +--> ?PR?CONFIG_CH375?CFGUO
  +--> ?PR?_SETCHAMBERON?CHAMBER
  +--> ?PR?_READCHAMBERTEMPERATURE?CHAMBER
  +--> ?PR?CONFIG_FLUKE_MODE?CFGUO
BL51 BANKED LINKER/LOCATER V6.22.2.0                                                  01/20/2021  15:22:28  PAGE 6


  +--> ?PR?_REQUIRECFGUOALLCHANNELTEMPERATUR...
  +--> ?PR?PRINTF?PRINTF
  +--> ?PR?_SETVOLTAGE?NEWPOWER
  +--> ?PR?TSTBRDPOWERINIT?TSTBRDCONTRL
  +--> ?PR?_SETTSTBRDPOWERON?TSTBRDCONTRL
  +--> ?PR?_SEARCHTESTMAINBOARD?TSTBRDCONTRL
  +--> ?PR?_READTC18B20PACKAGEANDUSEPT100IND...
  +--> ?PR?_STRSTR?STRSTR
  +--> ?PR?_SENDTC18B20PACKAGETYPETOBOARD?DA...
  +--> ?PR?_READOPA544OUTPUTCURRENT?NEWPOWER
  +--> ?PR?STARTPROCESS?SYSTEMINIT
  +--> ?PR?_WAITFORTRIMINGPROCESS?DATATRANS
  +--> ?PR?_SETCHAMBEROFF?CHAMBER
  +--> ?PR?TRIMINGBOARDCOLLECTOR?SYSTEMINIT
  +--> ?PR?_READTEMPERATUREDATAFROMTRIMINGBO...
  +--> ?PR?_SENDFLOATDATATOPC?PC
  +--> ?PR?_SENDPT100DATATOTRIMINGBOARD?DATA...
  +--> ?PR?_SENDINTDATATOPC?PC
  +--> ?PR?_SETCHAMBERTEMPERATURE?CHAMBER
  +--> ?PR?_ENDALLPROCESS?TSTBRDCONTRL

?PR?SYSTEMINIT?SYSTEMINIT                        -----    -----      -----    -----      -----    -----
  +--> ?PR?UART4_INIT?SYSTEMINIT
  +--> ?PR?SPI_INIT?SYSTEMINIT

?PR?_SENDSTRINGDATATOPC?PC                       -----    -----      -----    -----      0B8BH    0003H
  +--> ?PR?_USARTINIT?DATATRANS
  +--> ?PR?_SENDSTRINGDATA?DATATRANS

?PR?_SENDSTRINGDATA?DATATRANS                    -----    -----      -----    -----      0B8EH    0003H

?PR?CONFIG_CH375?CFGUO                           -----    -----      -----    -----      0977H    0001H
  +--> ?PR?_DELAY_MS?DELAYTIME
  +--> ?PR?CH375_RESET?CFGUO
  +--> ?PR?_CH375_USB_MODE?CFGUO
  +--> ?CO?CFGUO
  +--> ?PR?_SENDSTRINGDATATOPC?PC
  +--> ?PR?USB_DEV_AUTOSET?CFGUO

?PR?CH375_RESET?CFGUO                            -----    -----      -----    -----      -----    -----
  +--> ?PR?_UART4_SEND375CMD?CFGUO
  +--> ?PR?_DELAY_MS?DELAYTIME

?PR?_CH375_USB_MODE?CFGUO                        -----    -----      -----    -----      0978H    0002H
  +--> ?PR?_UART4_SEND375CMD?CFGUO
  +--> ?PR?_UART4_SEND375DATA?CFGUO
  +--> ?PR?GET_OPER_STATUS?CFGUO
  +--> ?PR?_DELAY_MS?DELAYTIME

?PR?GET_OPER_STATUS?CFGUO                        -----    -----      -----    -----      097AH    0005H
  +--> ?PR?DELAY_5US?DELAYTIME

?PR?USB_DEV_AUTOSET?CFGUO                        -----    -----      -----    -----      -----    -----
  +--> ?PR?_UART4_SEND375CMD?CFGUO
  +--> ?PR?_DELAY_MS?DELAYTIME
  +--> ?PR?GET_INT_STATUS?CFGUO

BL51 BANKED LINKER/LOCATER V6.22.2.0                                                  01/20/2021  15:22:28  PAGE 7


?PR?GET_INT_STATUS?CFGUO                         -----    -----      -----    -----      0B8DH    0005H
  +--> ?PR?DELAY_5US?DELAYTIME

?PR?_SETCHAMBERON?CHAMBER                        -----    -----      -----    -----      0977H    0002H
  +--> ?PR?CH395_LABCHAM_VARI_INIT?CH395CMD
  +--> ?PR?INIT_CH395_LABCHAM_CONNECT?CH395CMD
  +--> ?PR?_DELAY_MS?DELAYTIME
  +--> ?PR?_SETUSARTTWOPOSIONANDBTR?DATATRANS
  +--> ?CO?CHAMBER
  +--> ?PR?_SENDSTRINGDATA?DATATRANS
  +--> ?PR?_CRC16_MODBUS?CRC16_MODBUS
  +--> ?PR?_SENDDATA?DATATRANS

?PR?INIT_CH395_LABCHAM_CONNECT?CH395CMD          -----    -----      -----    -----      -----    -----
  +--> ?PR?CH395CMDRESET?CH395CMD
  +--> ?PR?_DELAY_MS?DELAYTIME
  +--> ?PR?INITCH395INFPARAM?CH395CMD
  +--> ?PR?CH395INIT?CH395CMD
  +--> ?PR?_MSTOPIFERROR?CH395CMD
  +--> ?PR?CH395CMDGETPHYSTATUS?CH395CMD
  +--> ?PR?CH395GLOBALINTERRUPT?CH395CMD
  +--> ?PR?INITSOCKETPARAM?CH395CMD
  +--> ?PR?CH395SOCKETINITOPEN?CH395CMD
  +--> ?CO?CH395CMD
  +--> ?PR?_SENDSTRINGDATATOPC?PC
  +--> ?PR?KEEPLIVE_SET?CH395CMD

?PR?CH395CMDRESET?CH395CMD                       -----    -----      -----    -----      -----    -----
  +--> ?PR?_XWRITECH395CMD?SYSTEMINIT

?PR?_XWRITECH395CMD?SYSTEMINIT                   -----    -----      -----    -----      -----    -----
  +--> ?PR?_SPI395EXCHANGE?SYSTEMINIT
  +--> ?PR?DELAY_5US?DELAYTIME

?PR?INITCH395INFPARAM?CH395CMD                   -----    -----      -----    -----      -----    -----
  +--> ?CO?CH395CMD

?PR?CH395INIT?CH395CMD                           -----    -----      -----    -----      0979H    0001H
  +--> ?PR?_CH395CMDCHECKEXIST?CH395CMD
  +--> ?CO?CH395CMD
  +--> ?PR?_SENDSTRINGDATATOPC?PC
  +--> ?PR?_CH395CMDSETIPADDR?CH395CMD
  +--> ?PR?_CH395CMDSETGWIPADDR?CH395CMD
  +--> ?PR?_CH395CMDSETMASKADDR?CH395CMD
  +--> ?PR?CH395CMDINITCH395?CH395CMD

?PR?_CH395CMDCHECKEXIST?CH395CMD                 -----    -----      -----    -----      097AH    0001H
  +--> ?PR?_XWRITECH395CMD?SYSTEMINIT
  +--> ?PR?_XWRITECH395DATA?SYSTEMINIT
  +--> ?PR?XREADCH395DATA?SYSTEMINIT

?PR?_XWRITECH395DATA?SYSTEMINIT                  -----    -----      -----    -----      -----    -----
  +--> ?PR?_SPI395EXCHANGE?SYSTEMINIT

?PR?XREADCH395DATA?SYSTEMINIT                    -----    -----      -----    -----      -----    -----
  +--> ?PR?_SPI395EXCHANGE?SYSTEMINIT

BL51 BANKED LINKER/LOCATER V6.22.2.0                                                  01/20/2021  15:22:28  PAGE 8


?PR?_CH395CMDSETIPADDR?CH395CMD                  -----    -----      -----    -----      097AH    0004H
  +--> ?PR?_XWRITECH395CMD?SYSTEMINIT
  +--> ?PR?_XWRITECH395DATA?SYSTEMINIT

?PR?_CH395CMDSETGWIPADDR?CH395CMD                -----    -----      -----    -----      097AH    0004H
  +--> ?PR?_XWRITECH395CMD?SYSTEMINIT
  +--> ?PR?_XWRITECH395DATA?SYSTEMINIT

?PR?_CH395CMDSETMASKADDR?CH395CMD                -----    -----      -----    -----      097AH    0004H
  +--> ?PR?_XWRITECH395CMD?SYSTEMINIT
  +--> ?PR?_XWRITECH395DATA?SYSTEMINIT

?PR?CH395CMDINITCH395?CH395CMD                   -----    -----      -----    -----      097AH    0002H
  +--> ?PR?_XWRITECH395CMD?SYSTEMINIT
  +--> ?PR?_DELAY_MS?DELAYTIME
  +--> ?PR?CH395GETCMDSTATUS?CH395CMD

?PR?CH395GETCMDSTATUS?CH395CMD                   -----    -----      -----    -----      -----    -----
  +--> ?PR?_XWRITECH395CMD?SYSTEMINIT
  +--> ?PR?XREADCH395DATA?SYSTEMINIT

?PR?_MSTOPIFERROR?CH395CMD                       -----    -----      -----    -----      -----    -----
  +--> ?CO?CH395CMD
  +--> ?PR?PRINTF?PRINTF
  +--> ?PR?_SENDSTRINGDATATOPC?PC
  +--> ?PR?_DELAY_MS?DELAYTIME

?PR?PRINTF?PRINTF                                0020H.4  0001H.1    0008H    0005H      0B8BH    0030H
  +--> ?PR?PUTCHAR?PUTCHAR

?PR?CH395CMDGETPHYSTATUS?CH395CMD                -----    -----      -----    -----      -----    -----
  +--> ?PR?_XWRITECH395CMD?SYSTEMINIT
  +--> ?PR?XREADCH395DATA?SYSTEMINIT

?PR?CH395GLOBALINTERRUPT?CH395CMD                -----    -----      -----    -----      09A0H    000DH
  +--> ?PR?CH395CMDGETGLOBINTSTATUS?CH395CMD
  +--> ?CO?CH395CMD
  +--> ?PR?_SENDSTRINGDATATOPC?PC
  +--> ?PR?_CH395CMDGETUNREACHIPPT?CH395CMD
  +--> ?PR?CH395CMDGETPHYSTATUS?CH395CMD
  +--> ?PR?_CH395SOCKETINTERRUPT?CH395CMD

?PR?CH395CMDGETGLOBINTSTATUS?CH395CMD            -----    -----      -----    -----      -----    -----
  +--> ?PR?_XWRITECH395CMD?SYSTEMINIT
  +--> ?PR?XREADCH395DATA?SYSTEMINIT

?PR?_CH395CMDGETUNREACHIPPT?CH395CMD             -----    -----      -----    -----      09ADH    0004H
  +--> ?PR?_XWRITECH395CMD?SYSTEMINIT
  +--> ?PR?XREADCH395DATA?SYSTEMINIT

?PR?_CH395SOCKETINTERRUPT?CH395CMD               -----    -----      -----    -----      09ADH    0005H
  +--> ?PR?_CH395GETSOCKETINT?CH395CMD
  +--> ?CO?CH395CMD
  +--> ?PR?_SENDSTRINGDATATOPC?PC
  +--> ?PR?_CH395GETRECVLENGTH?CH395CMD
  +--> ?PR?_CH395GETRECVDATA?CH395CMD
  +--> ?PR?PRINTF?PRINTF
BL51 BANKED LINKER/LOCATER V6.22.2.0                                                  01/20/2021  15:22:28  PAGE 9


  +--> ?PR?_DELAY_MS?DELAYTIME
  +--> ?PR?_CH395OPENSOCKET?CH395CMD
  +--> ?PR?_MSTOPIFERROR?CH395CMD
  +--> ?PR?_CH395TCPCONNECT?CH395CMD

?PR?_CH395GETSOCKETINT?CH395CMD                  -----    -----      -----    -----      09B2H    0001H
  +--> ?PR?_XWRITECH395CMD?SYSTEMINIT
  +--> ?PR?_XWRITECH395DATA?SYSTEMINIT
  +--> ?PR?DELAY_5US?DELAYTIME
  +--> ?PR?XREADCH395DATA?SYSTEMINIT

?PR?_CH395GETRECVLENGTH?CH395CMD                 -----    -----      -----    -----      09B2H    0003H
  +--> ?PR?_XWRITECH395CMD?SYSTEMINIT
  +--> ?PR?_XWRITECH395DATA?SYSTEMINIT
  +--> ?PR?XREADCH395DATA?SYSTEMINIT

?PR?_CH395GETRECVDATA?CH395CMD                   -----    -----      -----    -----      09B2H    0008H
  +--> ?PR?_XWRITECH395CMD?SYSTEMINIT
  +--> ?PR?_XWRITECH395DATA?SYSTEMINIT
  +--> ?PR?DELAY_5US?DELAYTIME
  +--> ?PR?XREADCH395DATA?SYSTEMINIT

?PR?_CH395OPENSOCKET?CH395CMD                    -----    -----      -----    -----      09B2H    0003H
  +--> ?PR?_XWRITECH395CMD?SYSTEMINIT
  +--> ?PR?_XWRITECH395DATA?SYSTEMINIT
  +--> ?PR?_DELAY_MS?DELAYTIME
  +--> ?PR?CH395GETCMDSTATUS?CH395CMD

?PR?_CH395TCPCONNECT?CH395CMD                    -----    -----      -----    -----      09B2H    0003H
  +--> ?PR?_XWRITECH395CMD?SYSTEMINIT
  +--> ?PR?_XWRITECH395DATA?SYSTEMINIT
  +--> ?PR?_DELAY_MS?DELAYTIME
  +--> ?PR?CH395GETCMDSTATUS?CH395CMD

?PR?INITSOCKETPARAM?CH395CMD                     -----    -----      -----    -----      -----    -----
  +--> ?CO?CH395CMD

?PR?CH395SOCKETINITOPEN?CH395CMD                 -----    -----      -----    -----      0979H    0001H
  +--> ?PR?_CH395SETSOCKETPROTTYPE?CH395CMD
  +--> ?PR?_CH395SETSOCKETDESIP?CH395CMD
  +--> ?PR?_CH395SETSOCKETDESPORT?CH395CMD
  +--> ?PR?_CH395SETSOCKETSOURPORT?CH395CMD
  +--> ?CO?CH395CMD
  +--> ?PR?_SENDSTRINGDATATOPC?PC
  +--> ?PR?_CH395OPENSOCKET?CH395CMD
  +--> ?PR?_MSTOPIFERROR?CH395CMD
  +--> ?PR?_CH395TCPCONNECT?CH395CMD

?PR?_CH395SETSOCKETPROTTYPE?CH395CMD             -----    -----      -----    -----      097AH    0002H
  +--> ?PR?_XWRITECH395CMD?SYSTEMINIT
  +--> ?PR?_XWRITECH395DATA?SYSTEMINIT

?PR?_CH395SETSOCKETDESIP?CH395CMD                -----    -----      -----    -----      097AH    0004H
  +--> ?PR?_XWRITECH395CMD?SYSTEMINIT
  +--> ?PR?_XWRITECH395DATA?SYSTEMINIT

?PR?_CH395SETSOCKETDESPORT?CH395CMD              -----    -----      -----    -----      097AH    0003H
BL51 BANKED LINKER/LOCATER V6.22.2.0                                                  01/20/2021  15:22:28  PAGE 10


  +--> ?PR?_XWRITECH395CMD?SYSTEMINIT
  +--> ?PR?_XWRITECH395DATA?SYSTEMINIT

?PR?_CH395SETSOCKETSOURPORT?CH395CMD             -----    -----      -----    -----      097AH    0003H
  +--> ?PR?_XWRITECH395CMD?SYSTEMINIT
  +--> ?PR?_XWRITECH395DATA?SYSTEMINIT

?PR?KEEPLIVE_SET?CH395CMD                        -----    -----      -----    -----      -----    -----
  +--> ?PR?_CH395SETKEEPLIVE?CH395CMD
  +--> ?PR?_CH395KEEPLIVECNT?CH395CMD
  +--> ?PR?_CH395KEEPLIVEIDLE?CH395CMD
  +--> ?PR?_CH395KEEPLIVEINTVL?CH395CMD

?PR?_CH395SETKEEPLIVE?CH395CMD                   -----    -----      -----    -----      0979H    0002H
  +--> ?PR?_XWRITECH395CMD?SYSTEMINIT
  +--> ?PR?_XWRITECH395DATA?SYSTEMINIT

?PR?_CH395KEEPLIVECNT?CH395CMD                   -----    -----      -----    -----      0979H    0001H
  +--> ?PR?_XWRITECH395CMD?SYSTEMINIT
  +--> ?PR?_XWRITECH395DATA?SYSTEMINIT

?PR?_CH395KEEPLIVEIDLE?CH395CMD                  -----    -----      -----    -----      0979H    0004H
  +--> ?PR?_XWRITECH395CMD?SYSTEMINIT
  +--> ?PR?_XWRITECH395DATA?SYSTEMINIT

?PR?_CH395KEEPLIVEINTVL?CH395CMD                 -----    -----      -----    -----      0979H    0004H
  +--> ?PR?_XWRITECH395CMD?SYSTEMINIT
  +--> ?PR?_XWRITECH395DATA?SYSTEMINIT

?PR?_SETUSARTTWOPOSIONANDBTR?DATATRANS           -----    -----      -----    -----      0993H    0001H
  +--> ?PR?_USARTINIT?DATATRANS
  +--> ?PR?_DELAY_MS?DELAYTIME

?PR?_CRC16_MODBUS?CRC16_MODBUS                   -----    -----      -----    -----      0993H    000CH
  +--> ?PR?_INVERTUINT8?CRC16_MODBUS
  +--> ?PR?_INVERTUINT16?CRC16_MODBUS

?PR?_INVERTUINT8?CRC16_MODBUS                    -----    -----      -----    -----      099FH    000CH

?PR?_INVERTUINT16?CRC16_MODBUS                   -----    -----      -----    -----      099FH    0010H

?PR?_SENDDATA?DATATRANS                          -----    -----      -----    -----      0993H    0006H

?PR?_READCHAMBERTEMPERATURE?CHAMBER              -----    -----      -----    -----      0977H    001CH
  +--> ?PR?_ACQURIE_LABCHAM_ACTUALTEMP?CH395CMD
  +--> ?CO?CHAMBER
  +--> ?PR?PRINTF?PRINTF
  +--> ?PR?_SENDSTRINGDATATOPC?PC
  +--> ?PR?_SETUSARTTWOPOSIONANDBTR?DATATRANS
  +--> ?PR?_DELAY_MS?DELAYTIME
  +--> ?PR?_SENDSTRINGDATA?DATATRANS
  +--> ?PR?ATOF?ATOF
  +--> ?PR?_CRC16_MODBUS?CRC16_MODBUS
  +--> ?PR?_SENDDATA?DATATRANS

?PR?_ACQURIE_LABCHAM_ACTUALTEMP?CH395CMD         -----    -----      -----    -----      0993H    0009H
  +--> ?PR?REQUEST_LABCHAMBER_STATE?CH395CMD
BL51 BANKED LINKER/LOCATER V6.22.2.0                                                  01/20/2021  15:22:28  PAGE 11


  +--> ?PR?ATOF?ATOF

?PR?REQUEST_LABCHAMBER_STATE?CH395CMD            -----    -----      -----    -----      099CH    0004H
  +--> ?CO?CH395CMD
  +--> ?PR?PRINTF?PRINTF
  +--> ?PR?_SENDCMDTOLABCHAMBER?CH395CMD
  +--> ?PR?CH395GLOBALINTERRUPT?CH395CMD
  +--> ?PR?_SENDSTRINGDATATOPC?PC

?PR?_SENDCMDTOLABCHAMBER?CH395CMD                -----    -----      -----    -----      09A0H    0003H
  +--> ?PR?_STRLEN?STRLEN
  +--> ?PR?_CH395SENDDATA?CH395CMD

?PR?_CH395SENDDATA?CH395CMD                      -----    -----      -----    -----      09A3H    0008H
  +--> ?PR?_XWRITECH395CMD?SYSTEMINIT
  +--> ?PR?_XWRITECH395DATA?SYSTEMINIT

?PR?ATOF?ATOF                                    -----    -----      -----    -----      0B79H    0003H
  +--> ?PR?_ISSPACE?ISSPACE
  +--> ?PR??C?ATOF??C?ATOF

?PR??C?ATOF??C?ATOF                              0020H.4  0000H.5    0008H    0002H      -----    -----

?PR?CONFIG_FLUKE_MODE?CFGUO                      -----    -----      -----    -----      0977H    0001H
  +--> ?CO?CFGUO
  +--> ?PR?_SEND_CMD_TO_FLUKE?CFGUO
  +--> ?PR?PRINTF?PRINTF
  +--> ?PR?_SENDSTRINGDATATOPC?PC
  +--> ?PR?_DELAY_MS?DELAYTIME

?PR?_SEND_CMD_TO_FLUKE?CFGUO                     -----    -----      -----    -----      -----    -----
  +--> ?PR?_WR_HOST_OUT_BUF?CFGUO
  +--> ?PR?SET_HOST_POINT_SEND?CFGUO
  +--> ?PR?_ISSUE_TOKEN?CFGUO

?PR?_WR_HOST_OUT_BUF?CFGUO                       -----    -----      -----    -----      0B79H    0003H
  +--> ?PR?_UART4_SEND375CMD?CFGUO
  +--> ?PR?_UART4_SENDFLUKECMD?CFGUO

?PR?_UART4_SENDFLUKECMD?CFGUO                    -----    -----      -----    -----      0B7CH    0003H
  +--> ?PR?_STRLEN?STRLEN

?PR?SET_HOST_POINT_SEND?CFGUO                    -----    -----      -----    -----      -----    -----
  +--> ?PR?_UART4_SEND375CMD?CFGUO
  +--> ?PR?_UART4_SEND375DATA?CFGUO
  +--> ?PR?DELAY_5US?DELAYTIME

?PR?_ISSUE_TOKEN?CFGUO                           -----    -----      -----    -----      0B8BH    0002H
  +--> ?PR?_UART4_SEND375CMD?CFGUO
  +--> ?PR?_UART4_SEND375DATA?CFGUO
  +--> ?PR?GET_INT_STATUS?CFGUO

?PR?_REQUIRECFGUOALLCHANNELTEMPERATUR...         -----    -----      -----    -----      0977H    0202H
  +--> ?CO?CFGUO
  +--> ?PR?_SEND_CMD_TO_FLUKE?CFGUO
  +--> ?PR?PRINTF?PRINTF
  +--> ?PR?_SENDSTRINGDATATOPC?PC
BL51 BANKED LINKER/LOCATER V6.22.2.0                                                  01/20/2021  15:22:28  PAGE 12


  +--> ?PR?_REV_DATA_FROM_FLUKE?CFGUO
  +--> ?PR?ATOF?ATOF
  +--> ?PR?_DELAY_MS?DELAYTIME

?PR?_REV_DATA_FROM_FLUKE?CFGUO                   -----    -----      -----    -----      0B79H    0009H
  +--> ?PR?_REV_DATA_FROM_CH375?CFGUO
  +--> ?CO?CFGUO
  +--> ?PR?PRINTF?PRINTF
  +--> ?PR?_SENDSTRINGDATATOPC?PC

?PR?_REV_DATA_FROM_CH375?CFGUO                   -----    -----      -----    -----      0B82H    0009H
  +--> ?PR?SET_HOST_POINT_REV?CFGUO
  +--> ?PR?_ISSUE_TOKEN?CFGUO
  +--> ?PR?_UART4_SEND375CMD?CFGUO
  +--> ?CO?CFGUO
  +--> ?PR?PRINTF?PRINTF
  +--> ?PR?_SENDSTRINGDATATOPC?PC

?PR?SET_HOST_POINT_REV?CFGUO                     -----    -----      -----    -----      -----    -----
  +--> ?PR?_UART4_SEND375CMD?CFGUO
  +--> ?PR?_UART4_SEND375DATA?CFGUO
  +--> ?PR?DELAY_5US?DELAYTIME

?PR?_SETVOLTAGE?NEWPOWER                         -----    -----      -----    -----      0977H    0008H
  +--> ?PR?_WRITEDATATOMAX5821?NEWPOWER

?PR?_WRITEDATATOMAX5821?NEWPOWER                 -----    -----      -----    -----      097FH    0004H
  +--> ?PR?_I2CWRITEDATATODEVICE?NEWPOWER

?PR?_I2CWRITEDATATODEVICE?NEWPOWER               -----    -----      -----    -----      0993H    0007H
  +--> ?PR?I2CSTART?NEWPOWER
  +--> ?CO?NEWPOWER
  +--> ?PR?DELAY_5US?DELAYTIME
  +--> ?PR?I2CDEVICEACK?NEWPOWER
  +--> ?PR?I2CSTOP?NEWPOWER

?PR?I2CSTART?NEWPOWER                            -----    -----      -----    -----      -----    -----
  +--> ?PR?RESETI2CPORT?NEWPOWER
  +--> ?PR?_DELAY_MS?DELAYTIME
  +--> ?PR?DELAY_5US?DELAYTIME

?PR?I2CDEVICEACK?NEWPOWER                        -----    -----      -----    -----      -----    -----
  +--> ?PR?DELAY_5US?DELAYTIME

?PR?I2CSTOP?NEWPOWER                             -----    -----      -----    -----      -----    -----
  +--> ?PR?DELAY_5US?DELAYTIME

?PR?_SEARCHTESTMAINBOARD?TSTBRDCONTRL            -----    -----      -----    -----      0977H    0003H
  +--> ?PR?_SETUSARTTWOPOSIONANDBTR?DATATRANS
  +--> ?CO?TSTBRDCONTRL
  +--> ?PR?_SENDSTRINGDATA?DATATRANS

?PR?_READTC18B20PACKAGEANDUSEPT100IND...         -----    -----      -----    -----      0977H    0012H
  +--> ?PR?_USARTINIT?DATATRANS
  +--> ?CO?PC
  +--> ?PR?_STRSTR?STRSTR
  +--> ?PR?_ATOI?ATOI
BL51 BANKED LINKER/LOCATER V6.22.2.0                                                  01/20/2021  15:22:28  PAGE 13



?PR?_ATOI?ATOI                                   0020H.4  0000H.1    -----    -----      0989H    0005H
  +--> ?PR?_ISSPACE?ISSPACE
  +--> ?PR?_ISDIGIT?ISDIGIT

?PR?_SENDTC18B20PACKAGETYPETOBOARD?DA...         -----    -----      -----    -----      0977H    0016H
  +--> ?CO?DATATRANS
  +--> ?PR?PRINTF?PRINTF
  +--> ?PR?_SETUSARTTWOPOSIONANDBTR?DATATRANS
  +--> ?PR?_SENDSTRINGDATA?DATATRANS

?PR?_READOPA544OUTPUTCURRENT?NEWPOWER            -----    -----      -----    -----      0977H    001CH
  +--> ?PR?_I2CWRITEDATATODEVICE?NEWPOWER
  +--> ?PR?_DELAY_MS?DELAYTIME
  +--> ?PR?_READDATAFROMADS1100?NEWPOWER

?PR?_READDATAFROMADS1100?NEWPOWER                -----    -----      -----    -----      0993H    0005H
  +--> ?PR?I2CSTART?NEWPOWER
  +--> ?CO?NEWPOWER
  +--> ?PR?DELAY_5US?DELAYTIME
  +--> ?PR?I2CDEVICEACK?NEWPOWER

?PR?STARTPROCESS?SYSTEMINIT                      -----    -----      -----    -----      -----    -----
  +--> ?PR?_DELAY_MS?DELAYTIME

?PR?_WAITFORTRIMINGPROCESS?DATATRANS             -----    -----      -----    -----      0977H    0001H
  +--> ?PR?_SETUSARTTWOPOSIONANDBTR?DATATRANS

?PR?_SETCHAMBEROFF?CHAMBER                       -----    -----      -----    -----      0977H    0002H
  +--> ?CO?CHAMBER
  +--> ?PR?_SENDSTRINGDATATOPC?PC
  +--> ?PR?SET_LABCHAMBER_OFF?CH395CMD
  +--> ?PR?_SETUSARTTWOPOSIONANDBTR?DATATRANS
  +--> ?PR?_DELAY_MS?DELAYTIME
  +--> ?PR?_SENDSTRINGDATA?DATATRANS
  +--> ?PR?_CRC16_MODBUS?CRC16_MODBUS
  +--> ?PR?_SENDDATA?DATATRANS

?PR?SET_LABCHAMBER_OFF?CH395CMD                  -----    -----      -----    -----      0979H    0004H
  +--> ?CO?CH395CMD
  +--> ?PR?PRINTF?PRINTF
  +--> ?PR?_SENDCMDTOLABCHAMBER?CH395CMD
  +--> ?PR?CH395GLOBALINTERRUPT?CH395CMD
  +--> ?PR?_SENDSTRINGDATATOPC?PC

?PR?TRIMINGBOARDCOLLECTOR?SYSTEMINIT             -----    -----      -----    -----      -----    -----
  +--> ?PR?_DELAY_MS?DELAYTIME

?PR?_READTEMPERATUREDATAFROMTRIMINGBO...         -----    -----      -----    -----      0977H    0006H
  +--> ?PR?_SETUSARTTWOPOSIONANDBTR?DATATRANS

?PR?_SENDFLOATDATATOPC?PC                        -----    -----      -----    -----      0977H    0004H
  +--> ?PR?_USARTINIT?DATATRANS
  +--> ?PR?_SENDFLOATDATA?DATATRANS

?PR?_SENDFLOATDATA?DATATRANS                     -----    -----      -----    -----      097BH    000BH
  +--> ?CO?DATATRANS
BL51 BANKED LINKER/LOCATER V6.22.2.0                                                  01/20/2021  15:22:28  PAGE 14


  +--> ?PR?PRINTF?PRINTF
  +--> ?PR?_SENDSTRINGDATA?DATATRANS

?PR?_SENDPT100DATATOTRIMINGBOARD?DATA...         -----    -----      -----    -----      0977H    0004H
  +--> ?CO?DATATRANS
  +--> ?PR?PRINTF?PRINTF
  +--> ?PR?_SETUSARTTWOPOSIONANDBTR?DATATRANS
  +--> ?PR?_SENDSTRINGDATA?DATATRANS

?PR?_SENDINTDATATOPC?PC                          -----    -----      -----    -----      0977H    0005H
  +--> ?PR?_USARTINIT?DATATRANS
  +--> ?PR?_SENDINTDATA?DATATRANS

?PR?_SENDINTDATA?DATATRANS                       -----    -----      -----    -----      097CH    000BH
  +--> ?CO?DATATRANS
  +--> ?PR?PRINTF?PRINTF
  +--> ?PR?_SENDSTRINGDATA?DATATRANS

?PR?_SETCHAMBERTEMPERATURE?CHAMBER               -----    -----      -----    -----      0977H    0008H
  +--> ?CO?CHAMBER
  +--> ?PR?PRINTF?PRINTF
  +--> ?PR?_SENDSTRINGDATATOPC?PC
  +--> ?PR?_SET_LABCHAMBER_TEMP?CH395CMD
  +--> ?PR?_SETUSARTTWOPOSIONANDBTR?DATATRANS
  +--> ?PR?_DELAY_MS?DELAYTIME
  +--> ?PR?_SENDSTRINGDATA?DATATRANS
  +--> ?PR?_CRC16_MODBUS?CRC16_MODBUS
  +--> ?PR?_SENDDATA?DATATRANS

?PR?_SET_LABCHAMBER_TEMP?CH395CMD                -----    -----      -----    -----      097FH    0004H
  +--> ?PR?_SET_LABCMD_FORMAT?CH395CMD
  +--> ?PR?_SENDCMDTOLABCHAMBER?CH395CMD
  +--> ?PR?CH395GLOBALINTERRUPT?CH395CMD
  +--> ?CO?CH395CMD
  +--> ?PR?_SENDSTRINGDATATOPC?PC
  +--> ?PR?_DELAY_MS?DELAYTIME

?PR?_SET_LABCMD_FORMAT?CH395CMD                  -----    -----      -----    -----      0983H    000AH
  +--> ?CO?CH395CMD
  +--> ?PR?PRINTF?PRINTF

?PR?_ENDALLPROCESS?TSTBRDCONTRL                  -----    -----      -----    -----      0977H    0001H
  +--> ?PR?_SETUSARTTWOPOSIONANDBTR?DATATRANS
  +--> ?CO?TSTBRDCONTRL
  +--> ?PR?_SENDSTRINGDATA?DATATRANS



SYMBOL TABLE OF MODULE:  .\Objects\BackBrdDrv 4point (DATATRANS)

  VALUE           TYPE          NAME
  ----------------------------------

  -------         MODULE        DATATRANS
  C:0000H         SYMBOL        _ICE_DUMMY_
  D:0080H         PUBLIC        P0
  X:1155H         PUBLIC        nTestBoardName
BL51 BANKED LINKER/LOCATER V6.22.2.0                                                  01/20/2021  15:22:28  PAGE 15


  D:0090H         PUBLIC        P1
  D:00A0H         PUBLIC        P2
  C:6934H         PUBLIC        _SendFloatData
  D:00B0H         PUBLIC        P3
  D:00C0H         PUBLIC        P4
  C:7055H         PUBLIC        _WaitForTrimingProcess
  C:70D2H         PUBLIC        _SendStringData
  D:00C8H         PUBLIC        P5
  D:00E8H         PUBLIC        P6
  D:00F8H         PUBLIC        P7
  C:7241H         PUBLIC        _SendData
  D:00BAH         PUBLIC        P_SW2
  D:00A8H         PUBLIC        IE
  B:00A8H.4       PUBLIC        ES
  D:00B8H         PUBLIC        IP
  B:0098H.1       PUBLIC        TI
  D:00D8H         PUBLIC        CCON
  C:5C0EH         PUBLIC        _UsartInit
  D:0099H         PUBLIC        SBUF
  X:115DH         PUBLIC        nTempP6PortData
  X:115EH         PUBLIC        nRecieveData
  D:0098H         PUBLIC        SCON
  D:0089H         PUBLIC        TMOD
  D:0088H         PUBLIC        TCON
  C:69E6H         PUBLIC        _SendIntData
  C:60A5H         PUBLIC        _SetUsartTwoPosionAndBtr
  C:6B42H         PUBLIC        _SendTC18B20PackageTypeToBoard
  X:1226H         PUBLIC        nDeviceIndex
  D:00AFH         PUBLIC        IE2
  D:008EH         PUBLIC        AUXR
  B:00A8H.3       PUBLIC        ET1
  X:1227H         PUBLIC        nOtherDeviceName
  D:008DH         PUBLIC        TH1
  D:00D6H         PUBLIC        T2H
  D:008BH         PUBLIC        TL1
  D:00D7H         PUBLIC        T2L
  X:122FH         PUBLIC        nRxDataCunt
  B:0088H.6       PUBLIC        TR1
  D:009BH         PUBLIC        S2BUF
  C:7BCCH         PUBLIC        _UsartInterrupt
  D:009AH         PUBLIC        S2CON
  C:62A3H         PUBLIC        _SendPt100DataToTrimingBoard
  C:55E1H         PUBLIC        _ReadTemperatureDataFromTrimingBoard
  X:1230H         PUBLIC        nSendData
  X:1244H         PUBLIC        nComTimeOutCunt
  D:00D0H         PUBLIC        PSW
  -------         PROC          _USARTINIT
  D:0007H         SYMBOL        nComPortIndex
  D:0005H         SYMBOL        nBtr
  C:5C0EH         LINE#         19
  C:5C0EH         LINE#         20
  C:5C0EH         LINE#         21
  C:5C19H         LINE#         22
  C:5C1CH         LINE#         23
  C:5C1FH         LINE#         24
  C:5C22H         LINE#         25
  C:5C25H         LINE#         27
BL51 BANKED LINKER/LOCATER V6.22.2.0                                                  01/20/2021  15:22:28  PAGE 16


  C:5C37H         LINE#         28
  C:5C49H         LINE#         29
  C:5C5BH         LINE#         30
  C:5C6DH         LINE#         31
  C:5C7FH         LINE#         32
  C:5C91H         LINE#         33
  C:5CA2H         LINE#         34
  C:5CAFH         LINE#         36
  C:5CB1H         LINE#         37
  C:5CB3H         LINE#         38
  C:5CB3H         LINE#         40
  C:5CC1H         LINE#         41
  C:5CC4H         LINE#         42
  C:5CD6H         LINE#         43
  C:5CE8H         LINE#         44
  C:5CFAH         LINE#         45
  C:5D0CH         LINE#         46
  C:5D1EH         LINE#         47
  C:5D30H         LINE#         48
  C:5D41H         LINE#         49
  C:5D4FH         LINE#         51
  C:5D52H         LINE#         52
  C:5D52H         LINE#         53
  -------         ENDPROC       _USARTINIT
  -------         PROC          _USARTINTERRUPT
  D:0007H         SYMBOL        nComPortIndex
  D:0005H         SYMBOL        nEnbDisable
  C:7BCCH         LINE#         61
  C:7BCCH         LINE#         62
  C:7BCCH         LINE#         63
  C:7BD4H         LINE#         64
  C:7BE0H         LINE#         65
  C:7BE2H         LINE#         66
  C:7BE4H         LINE#         68
  C:7BE4H         LINE#         69
  C:7BE6H         LINE#         70
  C:7BE6H         LINE#         71
  C:7BE6H         LINE#         73
  C:7BF1H         LINE#         74
  C:7BFEH         LINE#         75
  C:7C01H         LINE#         76
  C:7C02H         LINE#         78
  C:7C02H         LINE#         79
  C:7C05H         LINE#         80
  C:7C05H         LINE#         81
  C:7C05H         LINE#         82
  -------         ENDPROC       _USARTINTERRUPT
  -------         PROC          _SETUSARTTWOPOSIONANDBTR
  X:0993H         SYMBOL        nSerialPortPosion
  D:0001H         SYMBOL        nDeviceName
  D:0003H         SYMBOL        nBtr
  C:60A5H         LINE#         92
  C:60ACH         LINE#         93
  C:60ACH         LINE#         94
  C:60B5H         LINE#         95
  C:60BBH         LINE#         97
  C:60CAH         LINE#         98
BL51 BANKED LINKER/LOCATER V6.22.2.0                                                  01/20/2021  15:22:28  PAGE 17


  C:60CDH         LINE#         100
  C:60D4H         LINE#         101
  C:60EDH         LINE#         102
  C:6100H         LINE#         103
  C:6120H         LINE#         104
  C:6122H         LINE#         105
  C:6122H         LINE#         106
  C:612AH         LINE#         107
  C:612AH         LINE#         109
  C:6139H         LINE#         110
  C:613CH         LINE#         112
  C:6143H         LINE#         113
  C:615CH         LINE#         114
  C:616FH         LINE#         115
  C:618FH         LINE#         116
  C:6191H         LINE#         117
  C:6191H         LINE#         118
  C:6199H         LINE#         119
  C:6199H         LINE#         121
  C:619FH         LINE#         122
  C:61A6H         LINE#         123
  -------         ENDPROC       _SETUSARTTWOPOSIONANDBTR
  -------         PROC          _SENDSTRINGDATA
  D:0007H         SYMBOL        nComPortIndex
  X:0B8EH         SYMBOL        pData
  C:70D2H         LINE#         131
  C:70DDH         LINE#         132
  C:70DDH         LINE#         133
  C:70E5H         LINE#         134
  C:70F5H         LINE#         135
  C:7109H         LINE#         136
  C:710CH         LINE#         137
  C:710EH         LINE#         138
  C:7110H         LINE#         139
  C:7110H         LINE#         141
  C:711BH         LINE#         142
  C:712BH         LINE#         143
  C:713FH         LINE#         144
  C:7147H         LINE#         145
  C:714AH         LINE#         146
  C:714CH         LINE#         147
  C:714CH         LINE#         148
  -------         ENDPROC       _SENDSTRINGDATA
  -------         PROC          _SENDFLOATDATA
  X:097BH         SYMBOL        nComPortIndex
  X:097CH         SYMBOL        pFloatData
  X:097FH         SYMBOL        nFloatDataCunt
  -------         DO            
  X:0981H         SYMBOL        nCunt
  X:0983H         SYMBOL        pData
  -------         ENDDO         
  C:6934H         LINE#         157
  C:6942H         LINE#         158
  C:6942H         LINE#         159
  C:6949H         LINE#         162
  C:6967H         LINE#         163
  C:69B3H         LINE#         164
BL51 BANKED LINKER/LOCATER V6.22.2.0                                                  01/20/2021  15:22:28  PAGE 18


  C:69C1H         LINE#         166
  C:69D4H         LINE#         167
  C:69E5H         LINE#         168
  -------         ENDPROC       _SENDFLOATDATA
  -------         PROC          _SENDINTDATA
  X:097CH         SYMBOL        nComPortIndex
  X:097DH         SYMBOL        pIntData
  X:0980H         SYMBOL        nIntDataCunt
  -------         DO            
  X:0982H         SYMBOL        nCunt
  X:0984H         SYMBOL        pData
  -------         ENDDO         
  C:69E6H         LINE#         177
  C:69F4H         LINE#         178
  C:69F4H         LINE#         179
  C:69FBH         LINE#         182
  C:6A19H         LINE#         183
  C:6A65H         LINE#         184
  C:6A73H         LINE#         186
  C:6A86H         LINE#         187
  C:6A97H         LINE#         188
  -------         ENDPROC       _SENDINTDATA
  -------         PROC          _SENDDATA
  X:0993H         SYMBOL        nComPortIndex
  X:0994H         SYMBOL        pData
  X:0997H         SYMBOL        nIntDataCunt
  -------         DO            
  D:0006H         SYMBOL        nCunt
  -------         ENDDO         
  C:7241H         LINE#         199
  C:724FH         LINE#         200
  C:724FH         LINE#         201
  C:7252H         LINE#         202
  C:725FH         LINE#         203
  C:726CH         LINE#         204
  C:727EH         LINE#         205
  C:7281H         LINE#         206
  C:7283H         LINE#         207
  C:7283H         LINE#         209
  C:7292H         LINE#         210
  C:72A4H         LINE#         211
  C:72ACH         LINE#         212
  C:72AFH         LINE#         213
  C:72AFH         LINE#         214
  C:72B6H         LINE#         215
  -------         ENDPROC       _SENDDATA
  -------         PROC          _SENDTC18B20PACKAGETYPETOBOARD
  X:0977H         SYMBOL        nTrimingBoardIndex
  X:0978H         SYMBOL        nPkgType
  -------         DO            
  X:0979H         SYMBOL        nPkgData
  -------         ENDDO         
  C:6B42H         LINE#         225
  C:6B4AH         LINE#         226
  C:6B4AH         LINE#         229
  C:6B59H         LINE#         230
  C:6B7FH         LINE#         231
BL51 BANKED LINKER/LOCATER V6.22.2.0                                                  01/20/2021  15:22:28  PAGE 19


  C:6B98H         LINE#         232
  C:6BB0H         LINE#         233
  C:6BCCH         LINE#         234
  C:6BD7H         LINE#         235
  C:6BD7H         LINE#         236
  C:6BDFH         LINE#         237
  -------         ENDPROC       _SENDTC18B20PACKAGETYPETOBOARD
  -------         PROC          _WAITFORTRIMINGPROCESS
  X:0977H         SYMBOL        nTrimingBoardIndex
  C:7055H         LINE#         246
  C:705AH         LINE#         247
  C:705AH         LINE#         248
  C:7073H         LINE#         249
  C:708BH         LINE#         250
  C:70A7H         LINE#         251
  C:70AAH         LINE#         252
  C:70AAH         LINE#         253
  C:70ADH         LINE#         254
  C:70B5H         LINE#         255
  C:70B8H         LINE#         257
  C:70BDH         LINE#         258
  C:70C0H         LINE#         259
  C:70C5H         LINE#         260
  C:70C7H         LINE#         261
  C:70C7H         LINE#         262
  C:70C9H         LINE#         263
  C:70C9H         LINE#         264
  C:70D1H         LINE#         265
  -------         ENDPROC       _WAITFORTRIMINGPROCESS
  -------         PROC          _READTEMPERATUREDATAFROMTRIMINGBOARD
  X:0977H         SYMBOL        nTrimingBoardIndex
  X:0978H         SYMBOL        pData
  -------         DO            
  X:097BH         SYMBOL        nTemperatureData
  -------         ENDDO         
  C:55E1H         LINE#         275
  C:55EFH         LINE#         276
  C:55EFH         LINE#         279
  C:5608H         LINE#         280
  C:5629H         LINE#         281
  C:5631H         LINE#         283
  C:564AH         LINE#         284
  C:5662H         LINE#         285
  C:567EH         LINE#         286
  C:5680H         LINE#         287
  C:5680H         LINE#         288
  C:5688H         LINE#         290
  C:568DH         LINE#         291
  C:5690H         LINE#         292
  C:5690H         LINE#         293
  C:5693H         LINE#         294
  C:569BH         LINE#         295
  C:569EH         LINE#         297
  C:56A3H         LINE#         298
  C:56A6H         LINE#         300
  C:56BCH         LINE#         301
  C:56C2H         LINE#         302
BL51 BANKED LINKER/LOCATER V6.22.2.0                                                  01/20/2021  15:22:28  PAGE 20


  C:56C2H         LINE#         303
  C:56C2H         LINE#         304
  C:56C2H         LINE#         306
  C:56C2H         LINE#         307
  C:56C7H         LINE#         308
  C:56CAH         LINE#         309
  C:56E0H         LINE#         310
  C:56E6H         LINE#         311
  C:56F2H         LINE#         312
  C:56F4H         LINE#         313
  C:56F4H         LINE#         314
  C:56F6H         LINE#         316
  C:5712H         LINE#         317
  C:572DH         LINE#         318
  C:5736H         LINE#         319
  C:5757H         LINE#         321
  C:5785H         LINE#         322
  C:578FH         LINE#         323
  -------         ENDPROC       _READTEMPERATUREDATAFROMTRIMINGBOARD
  -------         PROC          _SENDPT100DATATOTRIMINGBOARD
  X:0977H         SYMBOL        nTrimingBoardIndex
  X:0978H         SYMBOL        pData
  C:62A3H         LINE#         333
  C:62B1H         LINE#         334
  C:62B1H         LINE#         335
  C:632DH         LINE#         336
  C:6346H         LINE#         337
  C:635EH         LINE#         338
  C:637AH         LINE#         339
  C:637AH         LINE#         340
  C:6382H         LINE#         342
  C:638DH         LINE#         343
  -------         ENDPROC       _SENDPT100DATATOTRIMINGBOARD
  -------         ENDMOD        DATATRANS

  -------         MODULE        PC
  C:0000H         SYMBOL        _ICE_DUMMY_
  D:0080H         PUBLIC        P0
  D:0090H         PUBLIC        P1
  D:00A0H         PUBLIC        P2
  D:00B0H         PUBLIC        P3
  D:00C0H         PUBLIC        P4
  D:00C8H         PUBLIC        P5
  D:00E8H         PUBLIC        P6
  D:00F8H         PUBLIC        P7
  X:1395H         PUBLIC        nCunt
  D:00A8H         PUBLIC        IE
  C:7C3DH         PUBLIC        _SendIntDataToPC
  D:00B8H         PUBLIC        IP
  B:0098H.0       PUBLIC        RI
  D:00D8H         PUBLIC        CCON
  D:0099H         PUBLIC        SBUF
  D:0098H         PUBLIC        SCON
  D:0088H         PUBLIC        TCON
  C:7D0EH         PUBLIC        _SendFloatDataToPC
  C:7F14H         PUBLIC        _SendStringDataToPC
  C:45C6H         PUBLIC        _ReadTC18B20PackageAndUsePt100Index
BL51 BANKED LINKER/LOCATER V6.22.2.0                                                  01/20/2021  15:22:28  PAGE 21


  D:00D0H         PUBLIC        PSW
  -------         PROC          _SENDSTRINGDATATOPC
  X:0B8BH         SYMBOL        pData
  C:7F14H         LINE#         9
  C:7F1FH         LINE#         10
  C:7F1FH         LINE#         12
  C:7F26H         LINE#         13
  C:7F36H         LINE#         14
  -------         ENDPROC       _SENDSTRINGDATATOPC
  -------         PROC          _SENDFLOATDATATOPC
  X:0977H         SYMBOL        pFloatData
  X:097AH         SYMBOL        nFloatDataCunt
  C:7D0EH         LINE#         16
  C:7D1CH         LINE#         17
  C:7D1CH         LINE#         19
  C:7D23H         LINE#         20
  C:7D3EH         LINE#         21
  -------         ENDPROC       _SENDFLOATDATATOPC
  -------         PROC          _SENDINTDATATOPC
  X:0977H         SYMBOL        pIntData
  X:097AH         SYMBOL        nIntDataCunt
  C:7C3DH         LINE#         23
  C:7C4EH         LINE#         24
  C:7C4EH         LINE#         26
  C:7C55H         LINE#         27
  C:7C72H         LINE#         28
  -------         ENDPROC       _SENDINTDATATOPC
  -------         PROC          _READTC18B20PACKAGEANDUSEPT100INDEX
  X:0977H         SYMBOL        nPackageType
  X:097AH         SYMBOL        nPt100Index
  -------         DO            
  X:097DH         SYMBOL        nTempRxData
  X:0987H         SYMBOL        nPt100Cunt
  X:0988H         SYMBOL        nBitCunt
  -------         ENDDO         
  C:45C6H         LINE#         30
  C:45D1H         LINE#         31
  C:45D1H         LINE#         33
  C:45D8H         LINE#         35
  C:45DEH         LINE#         37
  C:45E3H         LINE#         38
  C:45E5H         LINE#         39
  C:45E5H         LINE#         40
  C:45E8H         LINE#         41
  C:45EAH         LINE#         43
  C:45FAH         LINE#         44
  C:460CH         LINE#         45
  C:460CH         LINE#         46
  C:460CH         LINE#         48
  C:4612H         LINE#         49
  C:4612H         LINE#         50
  C:4614H         LINE#         52
  C:4623H         LINE#         53
  C:463BH         LINE#         54
  C:4656H         LINE#         55
  C:465EH         LINE#         57
  C:46B6H         LINE#         58
BL51 BANKED LINKER/LOCATER V6.22.2.0                                                  01/20/2021  15:22:28  PAGE 22


  C:46C6H         LINE#         59
  C:46C9H         LINE#         61
  C:4721H         LINE#         62
  C:4731H         LINE#         63
  C:4733H         LINE#         65
  C:478BH         LINE#         66
  C:479BH         LINE#         67
  C:479DH         LINE#         69
  C:479DH         LINE#         70
  C:47ADH         LINE#         71
  C:47ADH         LINE#         73
  C:47D9H         LINE#         74
  C:47ECH         LINE#         75
  C:47EFH         LINE#         77
  C:4847H         LINE#         78
  C:485AH         LINE#         79
  C:485CH         LINE#         81
  C:485CH         LINE#         82
  C:486FH         LINE#         83
  C:486FH         LINE#         86
  C:487EH         LINE#         87
  C:4883H         LINE#         88
  C:4883H         LINE#         89
  C:4894H         LINE#         90
  C:489AH         LINE#         91
  C:489CH         LINE#         92
  C:489CH         LINE#         93
  C:48A2H         LINE#         94
  C:48A4H         LINE#         96
  C:48A4H         LINE#         97
  C:48B5H         LINE#         98
  C:48BBH         LINE#         99
  C:48BDH         LINE#         100
  C:48BDH         LINE#         101
  C:48C3H         LINE#         102
  C:48C5H         LINE#         104
  C:48E1H         LINE#         105
  C:48F0H         LINE#         107
  C:48F5H         LINE#         108
  C:48F5H         LINE#         109
  C:4919H         LINE#         110
  C:4919H         LINE#         112
  C:4919H         LINE#         113
  C:493DH         LINE#         114
  C:4943H         LINE#         115
  C:4949H         LINE#         116
  C:4949H         LINE#         117
  C:494BH         LINE#         119
  C:4972H         LINE#         120
  C:4984H         LINE#         121
  C:4984H         LINE#         122
  C:4984H         LINE#         124
  C:4984H         LINE#         125
  C:498AH         LINE#         126
  C:498AH         LINE#         127
  C:4993H         LINE#         128
  -------         ENDPROC       _READTC18B20PACKAGEANDUSEPT100INDEX
BL51 BANKED LINKER/LOCATER V6.22.2.0                                                  01/20/2021  15:22:28  PAGE 23


  -------         ENDMOD        PC

  -------         MODULE        TSTBRDCONTRL
  C:0000H         SYMBOL        _ICE_DUMMY_
  C:81BAH         PUBLIC        TstBrdPowerInit
  D:0080H         PUBLIC        P0
  D:0090H         PUBLIC        P1
  D:00A0H         PUBLIC        P2
  D:00B0H         PUBLIC        P3
  D:00C0H         PUBLIC        P4
  D:00C8H         PUBLIC        P5
  D:00E8H         PUBLIC        P6
  D:00F8H         PUBLIC        P7
  X:136AH         PUBLIC        nPowerTestBoardIndex
  D:00A8H         PUBLIC        IE
  C:7404H         PUBLIC        _EndAllProcess
  D:00B8H         PUBLIC        IP
  D:00D8H         PUBLIC        CCON
  X:1372H         PUBLIC        nTempP7PortData
  D:0098H         PUBLIC        SCON
  D:0088H         PUBLIC        TCON
  C:74CCH         PUBLIC        _SetTstBrdPowerOn
  X:1373H         PUBLIC        nBoardIndex
  X:1374H         PUBLIC        nBoardIsHerePwr
  D:009BH         PUBLIC        S2BUF
  D:009AH         PUBLIC        S2CON
  C:67C2H         PUBLIC        _SearchTestMainBoard
  X:137CH         PUBLIC        nTestBoardIndex
  D:00D0H         PUBLIC        PSW
  -------         PROC          TSTBRDPOWERINIT
  C:81BAH         LINE#         19
  C:81BAH         LINE#         20
  C:81BAH         LINE#         21
  C:81BDH         LINE#         22
  -------         ENDPROC       TSTBRDPOWERINIT
  -------         PROC          _SETTSTBRDPOWERON
  D:0003H         SYMBOL        nBoardIndex
  C:74CCH         LINE#         24
  C:74CEH         LINE#         27
  C:74CEH         LINE#         28
  C:74D3H         LINE#         29
  C:74EBH         LINE#         30
  C:74FEH         LINE#         31
  C:751DH         LINE#         32
  C:751DH         LINE#         33
  C:7525H         LINE#         35
  C:752CH         LINE#         36
  -------         ENDPROC       _SETTSTBRDPOWERON
  -------         PROC          _SEARCHTESTMAINBOARD
  X:0977H         SYMBOL        nTestMainBoardIndex
  C:67C2H         LINE#         45
  C:67CDH         LINE#         46
  C:67CDH         LINE#         47
  C:67DCH         LINE#         48
  C:67F7H         LINE#         49
  C:67FEH         LINE#         50
  C:6819H         LINE#         51
BL51 BANKED LINKER/LOCATER V6.22.2.0                                                  01/20/2021  15:22:28  PAGE 24


  C:6824H         LINE#         53
  C:6827H         LINE#         54
  C:6827H         LINE#         55
  C:682CH         LINE#         56
  C:682FH         LINE#         57
  C:6834H         LINE#         58
  C:685BH         LINE#         59
  C:685DH         LINE#         60
  C:685DH         LINE#         61
  C:685DH         LINE#         63
  C:6871H         LINE#         64
  C:6873H         LINE#         65
  C:6875H         LINE#         66
  C:687EH         LINE#         67
  -------         ENDPROC       _SEARCHTESTMAINBOARD
  -------         PROC          _ENDALLPROCESS
  X:0977H         SYMBOL        nTestMainBoardIndex
  C:7404H         LINE#         76
  C:7409H         LINE#         77
  C:7409H         LINE#         78
  C:7422H         LINE#         79
  C:743AH         LINE#         80
  C:7456H         LINE#         81
  C:7461H         LINE#         82
  C:7461H         LINE#         83
  C:7469H         LINE#         84
  -------         ENDPROC       _ENDALLPROCESS
  -------         ENDMOD        TSTBRDCONTRL

  -------         MODULE        DELAYTIME
  C:0000H         SYMBOL        _ICE_DUMMY_
  D:0080H         PUBLIC        P0
  D:0090H         PUBLIC        P1
  D:00A0H         PUBLIC        P2
  D:00B0H         PUBLIC        P3
  D:00C0H         PUBLIC        P4
  D:00C8H         PUBLIC        P5
  D:00E8H         PUBLIC        P6
  D:00F8H         PUBLIC        P7
  C:80BFH         PUBLIC        Timer0Interrupt
  D:00A8H         PUBLIC        IE
  D:00B8H         PUBLIC        IP
  D:00D8H         PUBLIC        CCON
  C:7ECAH         PUBLIC        Delay_5US
  D:0098H         PUBLIC        SCON
  D:0089H         PUBLIC        TMOD
  D:0088H         PUBLIC        TCON
  X:1393H         PUBLIC        nTimer0Cunt
  D:008EH         PUBLIC        AUXR
  B:00A8H.1       PUBLIC        ET0
  B:0088H.5       PUBLIC        TF0
  D:008CH         PUBLIC        TH0
  D:008AH         PUBLIC        TL0
  B:0088H.4       PUBLIC        TR0
  C:7EEFH         PUBLIC        Delay_60US
  X:1394H         PUBLIC        nRunStopCunt
  C:7D3FH         PUBLIC        _Delay_MS
BL51 BANKED LINKER/LOCATER V6.22.2.0                                                  01/20/2021  15:22:28  PAGE 25


  D:00D0H         PUBLIC        PSW
  -------         PROC          _DELAY_MS
  D:0006H         SYMBOL        nDelayMs
  -------         DO            
  D:0004H         SYMBOL        nDelayCunt
  -------         ENDDO         
  C:7D3FH         LINE#         7
  C:7D3FH         LINE#         8
  C:7D3FH         LINE#         9
  C:7D42H         LINE#         11
  C:7D45H         LINE#         12
  C:7D48H         LINE#         14
  C:7D4BH         LINE#         15
  C:7D4EH         LINE#         16
  C:7D50H         LINE#         18
  C:7D52H         LINE#         19
  C:7D54H         LINE#         21
  C:7D54H         LINE#         22
  C:7D5CH         LINE#         23
  C:7D5DH         LINE#         24
  C:7D62H         LINE#         25
  C:7D62H         LINE#         27
  C:7D6AH         LINE#         28
  C:7D6AH         LINE#         29
  C:7D6CH         LINE#         30
  C:7D6EH         LINE#         31
  C:7D6EH         LINE#         32
  C:7D6EH         LINE#         33
  C:7D6EH         LINE#         34
  -------         ENDPROC       _DELAY_MS
  -------         PROC          DELAY_5US
  C:7ECAH         LINE#         36
  C:7ECAH         LINE#         37
  C:7ECAH         LINE#         38
  C:7ECFH         LINE#         40
  C:7ED2H         LINE#         41
  C:7ED5H         LINE#         42
  C:7ED8H         LINE#         43
  C:7EDBH         LINE#         44
  C:7EDDH         LINE#         46
  C:7EDFH         LINE#         47
  C:7EE1H         LINE#         49
  C:7EE1H         LINE#         50
  C:7EE1H         LINE#         51
  C:7EE9H         LINE#         52
  C:7EE9H         LINE#         53
  C:7EEBH         LINE#         54
  C:7EEDH         LINE#         55
  C:7EEEH         LINE#         56
  C:7EEEH         LINE#         57
  C:7EEEH         LINE#         58
  C:7EEEH         LINE#         59
  -------         ENDPROC       DELAY_5US
  -------         PROC          DELAY_60US
  C:7EEFH         LINE#         61
  C:7EEFH         LINE#         62
  C:7EEFH         LINE#         63
BL51 BANKED LINKER/LOCATER V6.22.2.0                                                  01/20/2021  15:22:28  PAGE 26


  C:7EF4H         LINE#         65
  C:7EF7H         LINE#         66
  C:7EFAH         LINE#         67
  C:7EFDH         LINE#         68
  C:7F00H         LINE#         69
  C:7F02H         LINE#         71
  C:7F04H         LINE#         72
  C:7F06H         LINE#         74
  C:7F06H         LINE#         75
  C:7F06H         LINE#         76
  C:7F0EH         LINE#         77
  C:7F0EH         LINE#         78
  C:7F10H         LINE#         79
  C:7F12H         LINE#         80
  C:7F13H         LINE#         81
  C:7F13H         LINE#         82
  C:7F13H         LINE#         83
  C:7F13H         LINE#         84
  -------         ENDPROC       DELAY_60US
  -------         PROC          TIMER0INTERRUPT
  C:80BFH         LINE#         86
  C:80C5H         LINE#         88
  C:80CBH         LINE#         89
  -------         ENDPROC       TIMER0INTERRUPT
  -------         ENDMOD        DELAYTIME

  -------         MODULE        SYSTEMINIT
  C:0000H         SYMBOL        _ICE_DUMMY_
  D:0092H         PUBLIC        P1M0
  D:0093H         PUBLIC        P0M1
  D:0096H         PUBLIC        P2M0
  D:0091H         PUBLIC        P1M1
  D:0080H         PUBLIC        P0
  D:00B2H         PUBLIC        P3M0
  D:0095H         PUBLIC        P2M1
  D:0090H         PUBLIC        P1
  D:00B1H         PUBLIC        P3M1
  D:00A0H         PUBLIC        P2
  D:00CAH         PUBLIC        P5M0
  D:00B0H         PUBLIC        P3
  D:00CCH         PUBLIC        P6M0
  D:00C9H         PUBLIC        P5M1
  D:00C0H         PUBLIC        P4
  D:00E2H         PUBLIC        P7M0
  D:00CBH         PUBLIC        P6M1
  D:00C8H         PUBLIC        P5
  B:00A8H.7       PUBLIC        EA
  D:00E1H         PUBLIC        P7M1
  D:00E8H         PUBLIC        P6
  D:00F8H         PUBLIC        P7
  D:00CEH         PUBLIC        SPCTL
  D:00A2H         PUBLIC        P_SW1
  D:00BAH         PUBLIC        P_SW2
  D:00A8H         PUBLIC        IE
  B:00A0H.6       PUBLIC        START
  B:00A8H.4       PUBLIC        ES
  D:00B8H         PUBLIC        IP
BL51 BANKED LINKER/LOCATER V6.22.2.0                                                  01/20/2021  15:22:28  PAGE 27


  B:0098H.0       PUBLIC        RI
  C:732AH         PUBLIC        SystemInit
  C:81B4H         PUBLIC        xReadCH395Data
  D:00D8H         PUBLIC        CCON
  C:7D9FH         PUBLIC        Delay100MS
  B:00A0H.7       PUBLIC        COLLECTOR
  D:0099H         PUBLIC        SBUF
  C:81BEH         PUBLIC        _xWriteCH395Data
  D:0098H         PUBLIC        SCON
  D:0088H         PUBLIC        TCON
  B:00B0H.2       PUBLIC        P32
  D:00AFH         PUBLIC        IE2
  B:00C8H.5       PUBLIC        test
  C:8080H         PUBLIC        ScanPressKey
  D:00C7H         PUBLIC        IAP_CONTR
  C:80F5H         PUBLIC        _xWriteCH395Cmd
  B:0088H.0       PUBLIC        IT0
  B:00A8H.0       PUBLIC        EX0
  B:0088H.2       PUBLIC        IT1
  B:00A8H.2       PUBLIC        EX1
  D:00D2H         PUBLIC        TH4
  D:00D3H         PUBLIC        TL4
  D:00D1H         PUBLIC        T4T3M
  D:00CDH         PUBLIC        SPSTAT
  C:819AH         PUBLIC        SPI_Init
  B:00A0H.2       PUBLIC        SPI_CS
  B:00C8H.4       PUBLIC        CH375_rst
  C:806AH         PUBLIC        UART4_Init
  D:0084H         PUBLIC        S4CON
  B:0021H.5       PUBLIC        bStartFlag
  C:5233H         PUBLIC        RecievePressKeyCommandFromPC
  B:0021H.6       PUBLIC        bInitFlag
  C:7FB7H         PUBLIC        StartProcess
  C:812FH         PUBLIC        _Spi395Exchange
  C:7FD3H         PUBLIC        TrimingBoardCollector
  D:00D0H         PUBLIC        PSW
  D:00CFH         PUBLIC        SPDAT
  D:0094H         PUBLIC        P0M0
  -------         PROC          SYSTEMINIT
  C:732AH         LINE#         10
  C:732AH         LINE#         11
  C:732AH         LINE#         12
  C:732DH         LINE#         13
  C:7333H         LINE#         14
  C:733AH         LINE#         15
  C:733FH         LINE#         16
  C:7344H         LINE#         17
  C:7347H         LINE#         19
  C:734AH         LINE#         20
  C:734CH         LINE#         21
  C:734EH         LINE#         23
  C:7350H         LINE#         24
  C:7352H         LINE#         26
  C:7354H         LINE#         27
  C:7356H         LINE#         28
  C:7358H         LINE#         30
  C:735BH         LINE#         31
BL51 BANKED LINKER/LOCATER V6.22.2.0                                                  01/20/2021  15:22:28  PAGE 28


  C:735DH         LINE#         33
  C:7360H         LINE#         34
  C:7362H         LINE#         36
  C:7365H         LINE#         37
  C:7368H         LINE#         41
  C:736BH         LINE#         43
  C:736EH         LINE#         44
  C:7371H         LINE#         46
  C:7374H         LINE#         47
  C:7377H         LINE#         48
  C:7379H         LINE#         52
  C:737CH         LINE#         53
  C:737FH         LINE#         55
  C:7382H         LINE#         57
  C:7385H         LINE#         58
  C:7388H         LINE#         60
  C:738BH         LINE#         61
  C:738EH         LINE#         65
  C:7391H         LINE#         66
  C:7394H         LINE#         67
  C:7396H         LINE#         69
  C:7398H         LINE#         70
  -------         ENDPROC       SYSTEMINIT
  -------         PROC          SPI_INIT
  C:819AH         LINE#         72
  C:819AH         LINE#         73
  C:819AH         LINE#         74
  C:819DH         LINE#         75
  C:81A0H         LINE#         77
  C:81A3H         LINE#         78
  -------         ENDPROC       SPI_INIT
  -------         PROC          _SPI395EXCHANGE
  D:0007H         SYMBOL        d
  C:812FH         LINE#         86
  C:812FH         LINE#         87
  C:812FH         LINE#         88
  C:8131H         LINE#         89
  C:8136H         LINE#         90
  C:8139H         LINE#         91
  C:813BH         LINE#         92
  -------         ENDPROC       _SPI395EXCHANGE
  -------         PROC          _XWRITECH395CMD
  D:0007H         SYMBOL        cmd
  C:80F5H         LINE#         101
  C:80F5H         LINE#         102
  C:80F5H         LINE#         103
  C:80F7H         LINE#         104
  C:80F9H         LINE#         105
  C:80FDH         LINE#         106
  C:8100H         LINE#         107
  C:8103H         LINE#         108
  -------         ENDPROC       _XWRITECH395CMD
  -------         PROC          _XWRITECH395DATA
  D:0007H         SYMBOL        mdata
  C:81BEH         LINE#         117
  C:81BEH         LINE#         118
  C:81BEH         LINE#         119
BL51 BANKED LINKER/LOCATER V6.22.2.0                                                  01/20/2021  15:22:28  PAGE 29


  C:81C1H         LINE#         120
  -------         ENDPROC       _XWRITECH395DATA
  -------         PROC          XREADCH395DATA
  -------         DO            
  D:0007H         SYMBOL        i
  -------         ENDDO         
  C:81B4H         LINE#         129
  C:81B4H         LINE#         130
  C:81B4H         LINE#         132
  C:81B9H         LINE#         133
  C:81B9H         LINE#         134
  -------         ENDPROC       XREADCH395DATA
  -------         PROC          UART4_INIT
  C:806AH         LINE#         137
  C:806AH         LINE#         138
  C:806AH         LINE#         139
  C:806DH         LINE#         141
  C:8070H         LINE#         142
  C:8073H         LINE#         144
  C:8076H         LINE#         145
  C:8079H         LINE#         147
  C:807CH         LINE#         148
  C:807FH         LINE#         150
  -------         ENDPROC       UART4_INIT
  -------         PROC          DELAY100MS
  -------         DO            
  D:0006H         SYMBOL        cunt1
  D:0004H         SYMBOL        cunt2
  -------         ENDDO         
  C:7D9FH         LINE#         152
  C:7D9FH         LINE#         153
  C:7D9FH         LINE#         154
  C:7DA4H         LINE#         155
  C:7DAFH         LINE#         156
  C:7DAFH         LINE#         157
  C:7DBDH         LINE#         158
  C:7DC5H         LINE#         159
  C:7DCCH         LINE#         160
  -------         ENDPROC       DELAY100MS
  -------         PROC          SCANPRESSKEY
  C:8080H         LINE#         162
  C:8087H         LINE#         164
  C:8089H         LINE#         165
  C:8089H         LINE#         166
  C:8089H         LINE#         167
  C:808CH         LINE#         168
  C:808FH         LINE#         169
  C:808FH         LINE#         170
  C:8091H         LINE#         171
  C:8091H         LINE#         172
  C:8091H         LINE#         173
  C:8091H         LINE#         174
  -------         ENDPROC       SCANPRESSKEY
  -------         PROC          RECIEVEPRESSKEYCOMMANDFROMPC
  -------         DO            
  D:001FH         SYMBOL        nRxDataCunt
  -------         ENDDO         
BL51 BANKED LINKER/LOCATER V6.22.2.0                                                  01/20/2021  15:22:28  PAGE 30


  C:5233H         LINE#         176
  C:5240H         LINE#         178
  C:5242H         LINE#         180
  C:5244H         LINE#         181
  C:5244H         LINE#         182
  C:5247H         LINE#         183
  C:5249H         LINE#         185
  C:525CH         LINE#         186
  C:5270H         LINE#         187
  C:5270H         LINE#         189
  C:5271H         LINE#         190
  C:5271H         LINE#         191
  C:5273H         LINE#         195
  C:52F7H         LINE#         196
  C:52F9H         LINE#         197
  C:52F9H         LINE#         201
  C:537DH         LINE#         202
  C:537FH         LINE#         203
  C:537FH         LINE#         207
  C:5403H         LINE#         208
  C:5406H         LINE#         209
  C:5406H         LINE#         210
  -------         ENDPROC       RECIEVEPRESSKEYCOMMANDFROMPC
  -------         PROC          STARTPROCESS
  C:7FB7H         LINE#         212
  C:7FB7H         LINE#         213
  C:7FB7H         LINE#         214
  C:7FB9H         LINE#         215
  C:7FC0H         LINE#         216
  C:7FC2H         LINE#         217
  C:7FC9H         LINE#         218
  C:7FCBH         LINE#         219
  C:7FD2H         LINE#         220
  -------         ENDPROC       STARTPROCESS
  -------         PROC          TRIMINGBOARDCOLLECTOR
  C:7FD3H         LINE#         222
  C:7FD3H         LINE#         223
  C:7FD3H         LINE#         224
  C:7FD5H         LINE#         225
  C:7FDCH         LINE#         226
  C:7FDEH         LINE#         227
  C:7FE5H         LINE#         228
  C:7FE7H         LINE#         229
  C:7FEEH         LINE#         230
  -------         ENDPROC       TRIMINGBOARDCOLLECTOR
  -------         ENDMOD        SYSTEMINIT

  -------         MODULE        MAINPRO
  C:0000H         SYMBOL        _ICE_DUMMY_
  D:0080H         PUBLIC        P0
  D:0090H         PUBLIC        P1
  D:00A0H         PUBLIC        P2
  D:00B0H         PUBLIC        P3
  D:00C0H         PUBLIC        P4
  D:00C8H         PUBLIC        P5
  D:00E8H         PUBLIC        P6
  D:00F8H         PUBLIC        P7
BL51 BANKED LINKER/LOCATER V6.22.2.0                                                  01/20/2021  15:22:28  PAGE 31


  C:3D2DH         PUBLIC        fLoOffset
  D:00A8H         PUBLIC        IE
  C:3D1DH         PUBLIC        fUpOffset
  B:00A8H.4       PUBLIC        ES
  D:00B8H         PUBLIC        IP
  D:00D8H         PUBLIC        CCON
  X:137DH         PUBLIC        LabChamTemp
  C:0026H         PUBLIC        main
  D:0098H         PUBLIC        SCON
  D:0088H         PUBLIC        TCON
  X:1381H         PUBLIC        aa
  X:1382H         PUBLIC        bb
  B:00A8H.0       PUBLIC        EX0
  X:1383H         PUBLIC        fVccVoltage
  C:3D05H         PUBLIC        fTrimingTemperature
  C:3D0DH         PUBLIC        fSetChamberTemperature
  D:00D0H         PUBLIC        PSW
  -------         PROC          MAIN
  -------         DO            
  X:000CH         SYMBOL        nTestMainBoardIndex
  X:000DH         SYMBOL        nTestBoardCunt
  X:000EH         SYMBOL        nChipCunt
  X:000FH         SYMBOL        nChipPackageType
  X:0010H         SYMBOL        nNeedPt100Number
  X:0011H         SYMBOL        nInputPt100NumberFromPc
  X:0012H         SYMBOL        nPt100Cunt
  X:0013H         SYMBOL        i
  D:0007H         SYMBOL        j
  X:0014H         SYMBOL        nPT100Index
  X:0034H         SYMBOL        nTemperaturePoint
  X:0035H         SYMBOL        nTempDataCunt
  X:0036H         SYMBOL        nBoardPt100
  X:0037H         SYMBOL        nUseBoardCunt
  X:0038H         SYMBOL        nMaxChipCuntOneBoard
  X:0039H         SYMBOL        nPassFailResult
  X:01B9H         SYMBOL        nVoltagePoint
  X:01BAH         SYMBOL        nTrimOrRead
  B:0020H.0       SYMBOL        bPackageIshere
  B:0020H.1       SYMBOL        bVoltageIsHere
  B:0020H.2       SYMBOL        bPt100IsHere
  B:0020H.3       SYMBOL        bRunMode
  X:01BBH         SYMBOL        fXJYDataAverage
  X:023BH         SYMBOL        fTemperature
  X:02FBH         SYMBOL        fTemperatureAverage
  X:08FBH         SYMBOL        fBoardCfguoData
  X:090BH         SYMBOL        nTemperature
  X:096BH         SYMBOL        fPt100Offset
  X:096FH         SYMBOL        fVcc
  X:0973H         SYMBOL        fSupplyCurrent
  C:01B6H         SYMBOL        SysInit
  -------         ENDDO         
  C:0026H         LINE#         58
  C:0026H         LINE#         59
  C:0026H         LINE#         61
  C:002CH         LINE#         67
  C:0036H         LINE#         70
  C:0039H         LINE#         71
BL51 BANKED LINKER/LOCATER V6.22.2.0                                                  01/20/2021  15:22:28  PAGE 32


  C:0040H         LINE#         72
  C:0049H         LINE#         73
  C:004CH         LINE#         75
  C:0055H         LINE#         76
  C:005CH         LINE#         77
  C:006DH         LINE#         78
  C:0074H         LINE#         84
  C:007DH         LINE#         86
  C:0080H         LINE#         87
  C:0087H         LINE#         88
  C:0090H         LINE#         89
  C:00A5H         LINE#         90
  C:00A5H         LINE#         91
  C:00B3H         LINE#         92
  C:00B9H         LINE#         93
  C:00B9H         LINE#         94
  C:00BBH         LINE#         95
  C:017EH         LINE#         96
  C:0187H         LINE#         97
  C:0187H         LINE#         98
  C:0190H         LINE#         100
  C:019BH         LINE#         101
  C:019EH         LINE#         103
  C:01ADH         LINE#         104
  C:01B6H         LINE#         106
  C:01B6H         LINE#         107
  C:01B8H         LINE#         108
  C:01BAH         LINE#         109
  C:01BAH         LINE#         110
  C:01BDH         LINE#         111
  C:01BFH         LINE#         113
  C:01C6H         LINE#         114
  C:01CBH         LINE#         116
  C:01D2H         LINE#         117
  C:01DBH         LINE#         118
  C:01E8H         LINE#         119
  C:01EBH         LINE#         120
  C:01F4H         LINE#         122
  C:01F6H         LINE#         123
  C:01F6H         LINE#         125
  C:01FFH         LINE#         126
  C:0208H         LINE#         127
  C:0211H         LINE#         128
  C:021AH         LINE#         129
  C:0223H         LINE#         131
  C:0228H         LINE#         132
  C:0240H         LINE#         133
  C:0258H         LINE#         134
  C:0261H         LINE#         135
  C:0268H         LINE#         136
  C:026AH         LINE#         138
  C:026AH         LINE#         139
  C:0273H         LINE#         140
  C:0273H         LINE#         141
  C:027BH         LINE#         143
  C:0284H         LINE#         144
  C:028DH         LINE#         146
BL51 BANKED LINKER/LOCATER V6.22.2.0                                                  01/20/2021  15:22:28  PAGE 33


  C:0295H         LINE#         147
  C:029EH         LINE#         148
  C:029EH         LINE#         149
  C:029EH         LINE#         150
  C:029EH         LINE#         152
  C:029EH         LINE#         153
  C:02C4H         LINE#         154
  C:02CDH         LINE#         155
  C:02DCH         LINE#         156
  C:02F6H         LINE#         157
  C:02FFH         LINE#         158
  C:0308H         LINE#         159
  C:0317H         LINE#         161
  C:0319H         LINE#         162
  C:031BH         LINE#         164
  C:032CH         LINE#         165
  C:032EH         LINE#         166
  C:0338H         LINE#         167
  C:033AH         LINE#         169
  C:034BH         LINE#         170
  C:034DH         LINE#         171
  C:0357H         LINE#         172
  C:0359H         LINE#         174
  C:036AH         LINE#         175
  C:036CH         LINE#         176
  C:0376H         LINE#         177
  C:0376H         LINE#         179
  C:0387H         LINE#         180
  C:0389H         LINE#         181
  C:0393H         LINE#         187
  C:039DH         LINE#         188
  C:03A7H         LINE#         189
  C:03B1H         LINE#         190
  C:03B3H         LINE#         192
  C:03C4H         LINE#         193
  C:03C6H         LINE#         194
  C:03D0H         LINE#         196
  C:03DAH         LINE#         197
  C:03E4H         LINE#         198
  C:03EEH         LINE#         199
  C:03EEH         LINE#         201
  C:03F4H         LINE#         202
  C:03FDH         LINE#         203
  C:0400H         LINE#         205
  C:0400H         LINE#         206
  C:0402H         LINE#         207
  C:0407H         LINE#         208
  C:041DH         LINE#         209
  C:043DH         LINE#         210
  C:0443H         LINE#         211
  C:0443H         LINE#         212
  C:044BH         LINE#         214
  C:0455H         LINE#         215
  C:0489H         LINE#         216
  C:0492H         LINE#         217
  C:0495H         LINE#         219
  C:0495H         LINE#         220
BL51 BANKED LINKER/LOCATER V6.22.2.0                                                  01/20/2021  15:22:28  PAGE 34


  C:04B0H         LINE#         221
  C:04C1H         LINE#         222
  C:04EAH         LINE#         223
  C:04ECH         LINE#         224
  C:04EEH         LINE#         225
  C:04EEH         LINE#         226
  C:04F1H         LINE#         228
  C:04F4H         LINE#         229
  C:04F4H         LINE#         230
  C:04FCH         LINE#         232
  C:04FFH         LINE#         233
  C:04FFH         LINE#         235
  C:04FFH         LINE#         236
  C:0508H         LINE#         237
  C:0508H         LINE#         238
  C:0508H         LINE#         239
  C:0508H         LINE#         240
  C:050BH         LINE#         242
  C:0514H         LINE#         243
  C:0523H         LINE#         244
  C:0525H         LINE#         245
  C:0527H         LINE#         246
  C:0527H         LINE#         247
  C:052AH         LINE#         248
  C:052CH         LINE#         250
  C:0558H         LINE#         251
  C:055AH         LINE#         252
  C:055CH         LINE#         254
  C:055CH         LINE#         255
  C:055EH         LINE#         256
  C:055EH         LINE#         258
  C:058AH         LINE#         259
  C:058FH         LINE#         260
  C:0594H         LINE#         261
  C:0594H         LINE#         263
  C:05C0H         LINE#         264
  C:05C6H         LINE#         265
  C:05CDH         LINE#         266
  C:05CDH         LINE#         268
  C:05DCH         LINE#         272
  C:05EDH         LINE#         273
  C:05F4H         LINE#         275
  C:0601H         LINE#         276
  C:060CH         LINE#         277
  C:0637H         LINE#         278
  C:0640H         LINE#         279
  C:065BH         LINE#         280
  C:0664H         LINE#         281
  C:0666H         LINE#         282
  C:0666H         LINE#         285
  C:066FH         LINE#         286
  C:068BH         LINE#         287
  C:06A3H         LINE#         288
  C:06BDH         LINE#         289
  C:06F7H         LINE#         290
  C:0700H         LINE#         291
  C:0708H         LINE#         292
BL51 BANKED LINKER/LOCATER V6.22.2.0                                                  01/20/2021  15:22:28  PAGE 35


  C:0708H         LINE#         293
  C:0711H         LINE#         295
  C:072BH         LINE#         296
  C:0768H         LINE#         297
  C:0771H         LINE#         298
  C:0779H         LINE#         300
  C:0782H         LINE#         303
  C:0789H         LINE#         304
  C:0790H         LINE#         305
  C:0797H         LINE#         307
  C:07A9H         LINE#         314
  C:07B0H         LINE#         316
  C:07C1H         LINE#         317
  C:07ECH         LINE#         318
  C:07F5H         LINE#         320
  C:080EH         LINE#         321
  C:082DH         LINE#         322
  C:0835H         LINE#         324
  C:084EH         LINE#         325
  C:0865H         LINE#         326
  C:08A2H         LINE#         327
  C:08AAH         LINE#         328
  C:08B2H         LINE#         330
  C:08B9H         LINE#         331
  C:08C2H         LINE#         332
  C:08C5H         LINE#         333
  C:08CDH         LINE#         335
  C:08E9H         LINE#         336
  C:08F2H         LINE#         337
  C:08F8H         LINE#         338
  C:0907H         LINE#         339
  C:0923H         LINE#         340
  C:0995H         LINE#         341
  C:099EH         LINE#         342
  C:099EH         LINE#         344
  C:099EH         LINE#         345
  C:09A4H         LINE#         346
  C:09AFH         LINE#         348
  C:09B8H         LINE#         349
  C:09BAH         LINE#         350
  C:09BAH         LINE#         351
  C:09BAH         LINE#         353
  C:09BDH         LINE#         354
  C:09C4H         LINE#         355
  C:09D1H         LINE#         357
  C:09EDH         LINE#         358
  C:0A08H         LINE#         359
  C:0A17H         LINE#         360
  C:0A3BH         LINE#         361
  C:0A58H         LINE#         362
  C:0AB1H         LINE#         363
  C:0B45H         LINE#         364
  C:0B4EH         LINE#         366
  C:0B5CH         LINE#         367
  C:0B5CH         LINE#         368
  C:0B65H         LINE#         371
  C:0B7DH         LINE#         372
BL51 BANKED LINKER/LOCATER V6.22.2.0                                                  01/20/2021  15:22:28  PAGE 36


  C:0BABH         LINE#         373
  C:0BB3H         LINE#         375
  C:0BDEH         LINE#         376
  C:0BE7H         LINE#         377
  C:0BF0H         LINE#         379
  C:0BF9H         LINE#         380
  C:0C12H         LINE#         381
  C:0C2AH         LINE#         382
  C:0C4AH         LINE#         383
  C:0C4AH         LINE#         384
  C:0C52H         LINE#         386
  C:0C6AH         LINE#         387
  C:0C98H         LINE#         388
  C:0CA0H         LINE#         391
  C:0CA9H         LINE#         392
  C:0CB0H         LINE#         394
  C:0CB5H         LINE#         395
  C:0CD0H         LINE#         396
  C:0CDFH         LINE#         397
  C:0CFEH         LINE#         398
  C:0D04H         LINE#         399
  C:0D1DH         LINE#         400
  C:0D8BH         LINE#         401
  C:0D94H         LINE#         403
  C:0DB8H         LINE#         404
  C:0DB8H         LINE#         405
  C:0DC1H         LINE#         407
  C:0DC8H         LINE#         409
  C:0DD1H         LINE#         410
  C:0DEAH         LINE#         411
  C:0E02H         LINE#         412
  C:0E11H         LINE#         413
  C:0E35H         LINE#         415
  C:0E47H         LINE#         416
  C:0E47H         LINE#         417
  C:0E4FH         LINE#         419
  C:0E60H         LINE#         420
  C:0E6BH         LINE#         421
  C:0E6BH         LINE#         423
  C:0E72H         LINE#         424
  C:0E75H         LINE#         425
  C:0E7CH         LINE#         426
  C:0E7FH         LINE#         427
  C:0E87H         LINE#         429
  C:0E90H         LINE#         430
  C:0EA9H         LINE#         431
  C:0EC1H         LINE#         432
  C:0ED0H         LINE#         433
  C:0EF4H         LINE#         435
  C:0F06H         LINE#         436
  C:0F06H         LINE#         437
  C:0F0EH         LINE#         439
  C:0F17H         LINE#         440
  C:0F30H         LINE#         441
  C:0F48H         LINE#         442
  C:0F57H         LINE#         443
  C:0F7BH         LINE#         445
BL51 BANKED LINKER/LOCATER V6.22.2.0                                                  01/20/2021  15:22:28  PAGE 37


  C:0F8DH         LINE#         446
  C:0F8DH         LINE#         447
  C:0F95H         LINE#         451
  C:0F9CH         LINE#         453
  C:0FB5H         LINE#         454
  C:0FD4H         LINE#         455
  C:0FDCH         LINE#         457
  C:0FF5H         LINE#         458
  C:100CH         LINE#         459
  C:1049H         LINE#         460
  C:1051H         LINE#         461
  C:1059H         LINE#         463
  C:1075H         LINE#         464
  C:107EH         LINE#         466
  C:1084H         LINE#         467
  C:1093H         LINE#         468
  C:10AFH         LINE#         469
  C:1121H         LINE#         470
  C:112AH         LINE#         471
  C:112AH         LINE#         473
  C:112AH         LINE#         474
  C:1130H         LINE#         475
  C:113BH         LINE#         477
  C:1144H         LINE#         478
  C:1146H         LINE#         479
  C:1146H         LINE#         480
  C:1146H         LINE#         482
  C:1149H         LINE#         483
  C:1150H         LINE#         484
  C:115DH         LINE#         486
  C:1179H         LINE#         487
  C:1194H         LINE#         488
  C:11A3H         LINE#         489
  C:11C7H         LINE#         490
  C:11E4H         LINE#         491
  C:123DH         LINE#         492
  C:12D1H         LINE#         493
  C:12DAH         LINE#         495
  C:12E8H         LINE#         496
  C:12E8H         LINE#         497
  C:12F1H         LINE#         499
  C:12FAH         LINE#         500
  C:1325H         LINE#         501
  C:132EH         LINE#         502
  C:1337H         LINE#         504
  C:1340H         LINE#         506
  C:1359H         LINE#         507
  C:1371H         LINE#         508
  C:1391H         LINE#         509
  C:1391H         LINE#         510
  C:1399H         LINE#         512
  C:13B1H         LINE#         513
  C:13DFH         LINE#         514
  C:13E7H         LINE#         516
  C:141EH         LINE#         517
  C:1427H         LINE#         519
  C:143BH         LINE#         520
BL51 BANKED LINKER/LOCATER V6.22.2.0                                                  01/20/2021  15:22:28  PAGE 38


  C:1456H         LINE#         521
  C:1471H         LINE#         522
  C:148EH         LINE#         523
  C:153AH         LINE#         524
  C:1543H         LINE#         525
  C:1565H         LINE#         526
  C:1565H         LINE#         527
  C:156EH         LINE#         528
  C:156EH         LINE#         529
  C:1579H         LINE#         530
  C:1582H         LINE#         531
  C:1584H         LINE#         532
  C:1584H         LINE#         538
  C:159DH         LINE#         539
  C:15B5H         LINE#         540
  C:15E3H         LINE#         541
  C:15EBH         LINE#         542
  C:15F3H         LINE#         544
  C:160FH         LINE#         545
  C:1656H         LINE#         546
  C:165FH         LINE#         547
  C:168BH         LINE#         566
  C:1692H         LINE#         568
  C:16ABH         LINE#         570
  C:16ABH         LINE#         571
  C:16B2H         LINE#         572
  C:16BAH         LINE#         574
  C:16D6H         LINE#         575
  C:16EFH         LINE#         576
  C:170EH         LINE#         577
  C:1716H         LINE#         579
  C:172FH         LINE#         580
  C:1746H         LINE#         581
  C:1783H         LINE#         582
  C:178BH         LINE#         583
  C:1793H         LINE#         585
  C:17BDH         LINE#         586
  C:17C4H         LINE#         587
  C:17C7H         LINE#         588
  C:17CEH         LINE#         590
  C:17EAH         LINE#         591
  C:17F3H         LINE#         592
  C:17F9H         LINE#         593
  C:1808H         LINE#         594
  C:1824H         LINE#         595
  C:1896H         LINE#         596
  C:189FH         LINE#         597
  C:189FH         LINE#         599
  C:189FH         LINE#         600
  C:18A6H         LINE#         601
  C:18B1H         LINE#         603
  C:18BAH         LINE#         604
  C:18BCH         LINE#         605
  C:18BCH         LINE#         606
  C:18BCH         LINE#         608
  C:18BFH         LINE#         609
  C:18C6H         LINE#         610
BL51 BANKED LINKER/LOCATER V6.22.2.0                                                  01/20/2021  15:22:28  PAGE 39


  C:18D3H         LINE#         612
  C:18EFH         LINE#         613
  C:190AH         LINE#         614
  C:1919H         LINE#         615
  C:193DH         LINE#         616
  C:195AH         LINE#         617
  C:19B3H         LINE#         618
  C:1A47H         LINE#         619
  C:1A50H         LINE#         621
  C:1A5EH         LINE#         622
  C:1A5EH         LINE#         623
  C:1A67H         LINE#         625
  C:1A7FH         LINE#         626
  C:1AADH         LINE#         627
  C:1AB5H         LINE#         629
  C:1AE0H         LINE#         630
  C:1AE9H         LINE#         631
  C:1AF2H         LINE#         633
  C:1AFBH         LINE#         634
  C:1B14H         LINE#         635
  C:1B2CH         LINE#         636
  C:1B4CH         LINE#         637
  C:1B4CH         LINE#         638
  C:1B54H         LINE#         640
  C:1B6CH         LINE#         641
  C:1B9AH         LINE#         642
  C:1BA2H         LINE#         644
  C:1C17H         LINE#         645
  C:1C20H         LINE#         647
  C:1C34H         LINE#         648
  C:1C4FH         LINE#         649
  C:1C6AH         LINE#         650
  C:1C87H         LINE#         651
  C:1D33H         LINE#         652
  C:1E27H         LINE#         653
  C:1E27H         LINE#         654
  C:1E60H         LINE#         655
  C:1E91H         LINE#         656
  C:1E91H         LINE#         657
  C:1E91H         LINE#         658
  C:1E9AH         LINE#         660
  C:1EBCH         LINE#         661
  C:1EBCH         LINE#         662
  C:1EC5H         LINE#         663
  C:1EC5H         LINE#         665
  C:1EC5H         LINE#         667
  C:1EC5H         LINE#         669
  C:1EC5H         LINE#         671
  C:1EC5H         LINE#         673
  C:1ECEH         LINE#         674
  C:1EEAH         LINE#         675
  C:1F05H         LINE#         676
  C:1F22H         LINE#         677
  C:2013H         LINE#         678
  C:2013H         LINE#         679
  C:201CH         LINE#         680
  C:201EH         LINE#         682
BL51 BANKED LINKER/LOCATER V6.22.2.0                                                  01/20/2021  15:22:28  PAGE 40


  C:201EH         LINE#         683
  C:2027H         LINE#         684
  C:2027H         LINE#         685
  C:2030H         LINE#         686
  C:2030H         LINE#         687
  C:2039H         LINE#         689
  C:2042H         LINE#         690
  C:204BH         LINE#         692
  C:2056H         LINE#         693
  C:205FH         LINE#         697
  C:2067H         LINE#         698
  C:206EH         LINE#         700
  C:2077H         LINE#         701
  C:2093H         LINE#         702
  C:20ABH         LINE#         703
  C:20C5H         LINE#         704
  C:20FBH         LINE#         705
  C:2104H         LINE#         706
  C:2106H         LINE#         708
  C:2106H         LINE#         709
  C:210FH         LINE#         710
  C:210FH         LINE#         711
  C:2117H         LINE#         712
  C:2117H         LINE#         713
  C:2120H         LINE#         715
  C:2129H         LINE#         716
  C:212BH         LINE#         717
  C:212DH         LINE#         718
  C:212DH         LINE#         719
  -------         ENDPROC       MAIN
  -------         ENDMOD        MAINPRO

  -------         MODULE        CHAMBER
  C:0000H         SYMBOL        _ICE_DUMMY_
  D:0080H         PUBLIC        P0
  D:0090H         PUBLIC        P1
  C:5F98H         PUBLIC        _SetChamberOff
  D:00A0H         PUBLIC        P2
  D:00B0H         PUBLIC        P3
  D:00C0H         PUBLIC        P4
  X:0BBBH         PUBLIC        nCrcData
  D:00C8H         PUBLIC        P5
  D:00E8H         PUBLIC        P6
  D:00F8H         PUBLIC        P7
  D:00A8H         PUBLIC        IE
  D:00B8H         PUBLIC        IP
  X:0BBDH         PUBLIC        fChamberData
  C:5E89H         PUBLIC        _SetChamberOn
  D:00D8H         PUBLIC        CCON
  C:2B5BH         PUBLIC        _WaitChamberStable
  X:106DH         PUBLIC        ChamberData
  D:0098H         PUBLIC        SCON
  X:10D1H         PUBLIC        temp_data
  D:0088H         PUBLIC        TCON
  C:4994H         PUBLIC        _ReadChamberTemperature
  X:10D5H         PUBLIC        fXJYData
  B:00A0H.1       PUBLIC        RS485RE
BL51 BANKED LINKER/LOCATER V6.22.2.0                                                  01/20/2021  15:22:28  PAGE 41


  D:009BH         PUBLIC        S2BUF
  D:009AH         PUBLIC        S2CON
  D:00D0H         PUBLIC        PSW
  C:4E57H         PUBLIC        _SetChamberTemperature
  -------         PROC          _SETCHAMBEROFF
  X:0977H         SYMBOL        nChamberName
  X:0978H         SYMBOL        nChamberIndex
  C:5F98H         LINE#         26
  C:5FA0H         LINE#         27
  C:5FA0H         LINE#         28
  C:5FAFH         LINE#         29
  C:5FAFH         LINE#         30
  C:5FB8H         LINE#         31
  C:5FBBH         LINE#         32
  C:5FBBH         LINE#         34
  C:5FCAH         LINE#         35
  C:5FCCH         LINE#         36
  C:5FD5H         LINE#         37
  C:5FDCH         LINE#         38
  C:5FE8H         LINE#         41
  C:5FE8H         LINE#         43
  C:5FF8H         LINE#         44
  C:5FFDH         LINE#         45
  C:6001H         LINE#         46
  C:6004H         LINE#         47
  C:6008H         LINE#         48
  C:600BH         LINE#         49
  C:600EH         LINE#         50
  C:6011H         LINE#         51
  C:6014H         LINE#         52
  C:6016H         LINE#         54
  C:602AH         LINE#         55
  C:6034H         LINE#         56
  C:603CH         LINE#         58
  C:6049H         LINE#         59
  C:604BH         LINE#         60
  C:6054H         LINE#         61
  C:605BH         LINE#         62
  C:606FH         LINE#         63
  C:606FH         LINE#         65
  C:607EH         LINE#         66
  C:6080H         LINE#         67
  C:6089H         LINE#         68
  C:6090H         LINE#         69
  C:60A4H         LINE#         70
  C:60A4H         LINE#         73
  C:60A4H         LINE#         74
  -------         ENDPROC       _SETCHAMBEROFF
  -------         PROC          _SETCHAMBERON
  X:0977H         SYMBOL        nChamberName
  X:0978H         SYMBOL        nChamberIndex
  C:5E89H         LINE#         83
  C:5E91H         LINE#         84
  C:5E91H         LINE#         85
  C:5EA0H         LINE#         86
  C:5EA0H         LINE#         87
  C:5EA3H         LINE#         88
BL51 BANKED LINKER/LOCATER V6.22.2.0                                                  01/20/2021  15:22:28  PAGE 42


  C:5EA6H         LINE#         90
  C:5EADH         LINE#         91
  C:5EADH         LINE#         93
  C:5EBCH         LINE#         94
  C:5EBEH         LINE#         95
  C:5EC7H         LINE#         96
  C:5ECEH         LINE#         97
  C:5EDAH         LINE#         100
  C:5EDAH         LINE#         102
  C:5EEAH         LINE#         103
  C:5EEFH         LINE#         104
  C:5EF3H         LINE#         105
  C:5EF6H         LINE#         106
  C:5EFAH         LINE#         107
  C:5EFDH         LINE#         108
  C:5F00H         LINE#         109
  C:5F03H         LINE#         110
  C:5F06H         LINE#         111
  C:5F09H         LINE#         113
  C:5F1DH         LINE#         114
  C:5F27H         LINE#         115
  C:5F2FH         LINE#         117
  C:5F3CH         LINE#         118
  C:5F3EH         LINE#         119
  C:5F47H         LINE#         120
  C:5F4EH         LINE#         121
  C:5F62H         LINE#         122
  C:5F62H         LINE#         124
  C:5F71H         LINE#         125
  C:5F73H         LINE#         126
  C:5F7CH         LINE#         127
  C:5F83H         LINE#         128
  C:5F97H         LINE#         129
  C:5F97H         LINE#         132
  C:5F97H         LINE#         133
  -------         ENDPROC       _SETCHAMBERON
  -------         PROC          _SETCHAMBERTEMPERATURE
  X:0977H         SYMBOL        nChamberName
  X:0978H         SYMBOL        nChamberIndex
  X:0979H         SYMBOL        fTempData
  -------         DO            
  X:097DH         SYMBOL        nTempData
  -------         ENDDO         
  C:4E57H         LINE#         143
  C:4E5FH         LINE#         144
  C:4E5FH         LINE#         147
  C:4E6EH         LINE#         148
  C:4E6EH         LINE#         149
  C:4E99H         LINE#         150
  C:4EA2H         LINE#         151
  C:4EB3H         LINE#         152
  C:4EB3H         LINE#         154
  C:4EC2H         LINE#         155
  C:4EC4H         LINE#         156
  C:4ED1H         LINE#         157
  C:4EFCH         LINE#         158
  C:4F05H         LINE#         159
BL51 BANKED LINKER/LOCATER V6.22.2.0                                                  01/20/2021  15:22:28  PAGE 43


  C:4F0CH         LINE#         160
  C:4F18H         LINE#         163
  C:4F18H         LINE#         165
  C:4F28H         LINE#         166
  C:4F3FH         LINE#         167
  C:4F62H         LINE#         168
  C:4F64H         LINE#         169
  C:4F64H         LINE#         170
  C:4F87H         LINE#         171
  C:4F87H         LINE#         173
  C:4F8DH         LINE#         174
  C:4F91H         LINE#         175
  C:4F94H         LINE#         176
  C:4F98H         LINE#         177
  C:4F9BH         LINE#         178
  C:4F9EH         LINE#         179
  C:4FA1H         LINE#         180
  C:4FAEH         LINE#         181
  C:4FB7H         LINE#         183
  C:4FCCH         LINE#         184
  C:4FD6H         LINE#         185
  C:4FDEH         LINE#         187
  C:4FEBH         LINE#         188
  C:4FEDH         LINE#         189
  C:4FF6H         LINE#         190
  C:4FFDH         LINE#         191
  C:5011H         LINE#         192
  C:5011H         LINE#         194
  C:5020H         LINE#         195
  C:5022H         LINE#         196
  C:502BH         LINE#         197
  C:5032H         LINE#         198
  C:5046H         LINE#         199
  C:5046H         LINE#         202
  C:5046H         LINE#         203
  -------         ENDPROC       _SETCHAMBERTEMPERATURE
  -------         PROC          _READCHAMBERTEMPERATURE
  X:0977H         SYMBOL        nChamberName
  X:0978H         SYMBOL        nChamberIndex
  X:0979H         SYMBOL        pData
  X:097CH         SYMBOL        nPvSv
  -------         DO            
  X:097DH         SYMBOL        nRxDataCunt
  X:097EH         SYMBOL        nTempDataCunt
  X:097FH         SYMBOL        nTempData
  D:0004H         SYMBOL        nData
  -------         ENDDO         
  C:4994H         LINE#         213
  C:49A5H         LINE#         214
  C:49A5H         LINE#         218
  C:49B4H         LINE#         219
  C:49C3H         LINE#         221
  C:49D2H         LINE#         222
  C:49D2H         LINE#         223
  C:49E0H         LINE#         224
  C:4A17H         LINE#         225
  C:4A20H         LINE#         226
BL51 BANKED LINKER/LOCATER V6.22.2.0                                                  01/20/2021  15:22:28  PAGE 44


  C:4A20H         LINE#         228
  C:4A32H         LINE#         229
  C:4A34H         LINE#         230
  C:4A3DH         LINE#         231
  C:4A44H         LINE#         232
  C:4A4FH         LINE#         234
  C:4A54H         LINE#         235
  C:4A56H         LINE#         236
  C:4A59H         LINE#         238
  C:4A59H         LINE#         239
  C:4A5EH         LINE#         240
  C:4A61H         LINE#         242
  C:4A67H         LINE#         243
  C:4A67H         LINE#         245
  C:4A77H         LINE#         246
  C:4A7DH         LINE#         247
  C:4A7DH         LINE#         248
  C:4A7FH         LINE#         250
  C:4A91H         LINE#         251
  C:4A9FH         LINE#         252
  C:4AB6H         LINE#         253
  C:4AC5H         LINE#         254
  C:4AC7H         LINE#         255
  C:4AC7H         LINE#         257
  C:4AE5H         LINE#         258
  C:4AEDH         LINE#         260
  C:4AF0H         LINE#         262
  C:4AF0H         LINE#         264
  C:4B00H         LINE#         265
  C:4B05H         LINE#         266
  C:4B09H         LINE#         267
  C:4B0CH         LINE#         269
  C:4B19H         LINE#         270
  C:4B1DH         LINE#         271
  C:4B1DH         LINE#         273
  C:4B2CH         LINE#         274
  C:4B32H         LINE#         275
  C:4B32H         LINE#         277
  C:4B37H         LINE#         278
  C:4B3AH         LINE#         280
  C:4B4EH         LINE#         281
  C:4B58H         LINE#         282
  C:4B60H         LINE#         284
  C:4B6DH         LINE#         285
  C:4B6FH         LINE#         286
  C:4B78H         LINE#         287
  C:4B7FH         LINE#         288
  C:4B93H         LINE#         289
  C:4B95H         LINE#         290
  C:4B95H         LINE#         292
  C:4BA4H         LINE#         293
  C:4BA6H         LINE#         294
  C:4BAFH         LINE#         295
  C:4BB6H         LINE#         296
  C:4BCAH         LINE#         297
  C:4BCCH         LINE#         298
  C:4BCCH         LINE#         300
BL51 BANKED LINKER/LOCATER V6.22.2.0                                                  01/20/2021  15:22:28  PAGE 45


  C:4BCFH         LINE#         301
  C:4BCFH         LINE#         302
  C:4BD4H         LINE#         303
  C:4BD7H         LINE#         304
  C:4BE7H         LINE#         305
  C:4BEDH         LINE#         307
  C:4BF2H         LINE#         308
  C:4BFCH         LINE#         309
  C:4BFCH         LINE#         311
  C:4C08H         LINE#         312
  C:4C0AH         LINE#         313
  C:4C0AH         LINE#         314
  C:4C0CH         LINE#         316
  C:4C0EH         LINE#         317
  C:4C19H         LINE#         318
  C:4C1DH         LINE#         319
  C:4C24H         LINE#         321
  C:4C42H         LINE#         323
  C:4C42H         LINE#         324
  -------         ENDPROC       _READCHAMBERTEMPERATURE
  -------         PROC          _WAITCHAMBERSTABLE
  X:1348H         SYMBOL        nChamberName
  X:1349H         SYMBOL        nChamberIndex
  X:134AH         SYMBOL        fSetTempData
  X:134EH         SYMBOL        fTempOffset
  X:1352H         SYMBOL        nPt100Index
  X:1355H         SYMBOL        nPt100NumberInUse
  X:1356H         SYMBOL        nTempSampleCunt
  X:1358H         SYMBOL        nWaitTimeCunt
  -------         DO            
  X:135AH         SYMBOL        nPt100DataCunt
  X:135CH         SYMBOL        nPt100Number
  X:135EH         SYMBOL        fMin
  X:1362H         SYMBOL        fMax
  X:1366H         SYMBOL        fChamberTrueData
  -------         ENDDO         
  C:2B5BH         LINE#         339
  C:2B63H         LINE#         349
  C:2B63H         LINE#         353
  C:2B74H         LINE#         354
  C:2B7BH         LINE#         355
  C:2B7BH         LINE#         357
  C:2BA0H         LINE#         358
  C:2BAAH         LINE#         359
  C:2BB9H         LINE#         360
  C:2BDCH         LINE#         361
  C:2C3FH         LINE#         362
  C:2C50H         LINE#         364
  C:2C9DH         LINE#         365
  C:2C9FH         LINE#         367
  C:2C9FH         LINE#         368
  C:2CA2H         LINE#         369
  C:2CA2H         LINE#         370
  C:2CB3H         LINE#         372
  C:2CB3H         LINE#         373
  C:2CC7H         LINE#         374
  C:2CDBH         LINE#         375
BL51 BANKED LINKER/LOCATER V6.22.2.0                                                  01/20/2021  15:22:28  PAGE 46


  C:2D00H         LINE#         376
  C:2D36H         LINE#         377
  C:2D60H         LINE#         378
  C:2D60H         LINE#         380
  C:2D97H         LINE#         381
  C:2DC1H         LINE#         382
  C:2DC1H         LINE#         383
  C:2DD2H         LINE#         385
  C:2DFFH         LINE#         386
  C:2E27H         LINE#         387
  C:2E74H         LINE#         388
  C:2E84H         LINE#         390
  C:2E8EH         LINE#         391
  C:2E9DH         LINE#         392
  C:2EC0H         LINE#         393
  C:2F23H         LINE#         394
  C:2F34H         LINE#         396
  C:2F81H         LINE#         397
  C:2F84H         LINE#         399
  C:2F84H         LINE#         400
  C:2F87H         LINE#         401
  C:2F87H         LINE#         402
  C:2F87H         LINE#         405
  C:2F87H         LINE#         406
  C:2F87H         LINE#         408
  C:2FACH         LINE#         409
  C:2FB6H         LINE#         410
  C:2FC5H         LINE#         411
  C:2FE8H         LINE#         412
  C:304BH         LINE#         413
  C:305CH         LINE#         414
  C:305CH         LINE#         416
  C:305CH         LINE#         417
  C:305FH         LINE#         418
  C:305FH         LINE#         419
  C:3070H         LINE#         421
  C:30A7H         LINE#         422
  C:30DFH         LINE#         423
  C:310DH         LINE#         424
  C:3134H         LINE#         426
  C:3159H         LINE#         427
  C:3163H         LINE#         428
  C:3172H         LINE#         429
  C:3195H         LINE#         430
  C:31F8H         LINE#         431
  C:3209H         LINE#         433
  C:3256H         LINE#         434
  C:3258H         LINE#         436
  C:3258H         LINE#         437
  C:325BH         LINE#         438
  C:325BH         LINE#         439
  C:326CH         LINE#         441
  C:326CH         LINE#         442
  C:3280H         LINE#         443
  C:3294H         LINE#         444
  C:32B9H         LINE#         445
  C:32EFH         LINE#         446
BL51 BANKED LINKER/LOCATER V6.22.2.0                                                  01/20/2021  15:22:28  PAGE 47


  C:3319H         LINE#         447
  C:3319H         LINE#         449
  C:3350H         LINE#         450
  C:337AH         LINE#         451
  C:337AH         LINE#         452
  C:338BH         LINE#         454
  C:33B8H         LINE#         455
  C:33E0H         LINE#         456
  C:342DH         LINE#         457
  C:343DH         LINE#         459
  C:3447H         LINE#         460
  C:3456H         LINE#         461
  C:3479H         LINE#         462
  C:34DCH         LINE#         463
  C:34EDH         LINE#         465
  C:353AH         LINE#         466
  C:353DH         LINE#         468
  C:353DH         LINE#         469
  C:3540H         LINE#         470
  C:3540H         LINE#         471
  C:3540H         LINE#         474
  C:3540H         LINE#         475
  C:3540H         LINE#         477
  C:3562H         LINE#         478
  C:356EH         LINE#         479
  C:3570H         LINE#         480
  C:3570H         LINE#         481
  C:3580H         LINE#         482
  C:3580H         LINE#         484
  C:3582H         LINE#         485
  -------         ENDPROC       _WAITCHAMBERSTABLE
  -------         ENDMOD        CHAMBER

  -------         MODULE        CFGUO
  C:0000H         SYMBOL        _ICE_DUMMY_
  D:0080H         PUBLIC        P0
  D:0090H         PUBLIC        P1
  C:8163H         PUBLIC        _send_cmd_to_fluke
  D:00A0H         PUBLIC        P2
  D:00B0H         PUBLIC        P3
  D:00C0H         PUBLIC        P4
  D:00C8H         PUBLIC        P5
  C:758EH         PUBLIC        config_CH375
  D:00E8H         PUBLIC        P6
  D:00F8H         PUBLIC        P7
  C:803AH         PUBLIC        set_host_point_send
  C:5D53H         PUBLIC        _RequireCFGuoAllChannelTemperature
  D:00A8H         PUBLIC        IE
  C:813CH         PUBLIC        CH375_Reset
  X:12F4H         PUBLIC        Last_data
  D:00B8H         PUBLIC        IP
  D:00D8H         PUBLIC        CCON
  C:8022H         PUBLIC        set_host_point_rev
  X:12F5H         PUBLIC        print_data
  X:1345H         PUBLIC        Chan_num
  C:7893H         PUBLIC        _issue_token
  D:0098H         PUBLIC        SCON
BL51 BANKED LINKER/LOCATER V6.22.2.0                                                  01/20/2021  15:22:28  PAGE 48


  D:0088H         PUBLIC        TCON
  C:662EH         PUBLIC        _rev_data_from_Fluke
  X:1346H         PUBLIC        Endp6
  X:1347H         PUBLIC        Endp7
  B:00C8H.5       PUBLIC        test
  C:752DH         PUBLIC        _Uart4_SendFlukeCmd
  C:8121H         PUBLIC        _Uart4_Send375Data
  C:7E7CH         PUBLIC        _CH375_USB_Mode
  C:714DH         PUBLIC        get_oper_status
  C:7F7AH         PUBLIC        _wr_host_out_buf
  D:0085H         PUBLIC        S4BUF
  B:00C8H.4       PUBLIC        CH375_rst
  D:0084H         PUBLIC        S4CON
  C:5931H         PUBLIC        _rev_data_from_CH375
  C:8113H         PUBLIC        _Uart4_Send375Cmd
  C:800AH         PUBLIC        USB_dev_autoset
  C:7399H         PUBLIC        get_int_status
  B:0080H.7       PUBLIC        usb_int
  D:00D0H         PUBLIC        PSW
  C:6474H         PUBLIC        config_fluke_mode
  -------         PROC          _REQUIRECFGUOALLCHANNELTEMPERATURE
  X:0977H         SYMBOL        fTempData
  -------         DO            
  X:097AH         SYMBOL        error
  X:097BH         SYMBOL        temp_char_data
  X:0B6AH         SYMBOL        one_chan_char_data
  X:0B77H         SYMBOL        channel_num
  D:0007H         SYMBOL        data_count
  D:0007H         SYMBOL        i
  D:0006H         SYMBOL        j
  X:0B78H         SYMBOL        nPassFail
  -------         ENDDO         
  C:5D53H         LINE#         39
  C:5D5EH         LINE#         40
  C:5D5EH         LINE#         46
  C:5D63H         LINE#         48
  C:5D6EH         LINE#         49
  C:5D6EH         LINE#         50
  C:5D7AH         LINE#         51
  C:5D98H         LINE#         52
  C:5D9BH         LINE#         55
  C:5DA9H         LINE#         56
  C:5DACH         LINE#         57
  C:5DACH         LINE#         58
  C:5DD0H         LINE#         59
  C:5DD9H         LINE#         60
  C:5DDFH         LINE#         61
  C:5DDFH         LINE#         63
  C:5DEDH         LINE#         64
  C:5DF0H         LINE#         65
  C:5DF0H         LINE#         66
  C:5DF9H         LINE#         67
  C:5DFFH         LINE#         68
  C:5DFFH         LINE#         70
  C:5E11H         LINE#         71
  C:5E11H         LINE#         72
  C:5E1DH         LINE#         73
BL51 BANKED LINKER/LOCATER V6.22.2.0                                                  01/20/2021  15:22:28  PAGE 49


  C:5E1DH         LINE#         74
  C:5E47H         LINE#         75
  C:5E4AH         LINE#         76
  C:5E6EH         LINE#         77
  C:5E76H         LINE#         79
  C:5E7CH         LINE#         80
  C:5E83H         LINE#         82
  C:5E88H         LINE#         83
  -------         ENDPROC       _REQUIRECFGUOALLCHANNELTEMPERATURE
  -------         PROC          CONFIG_CH375
  -------         DO            
  X:0977H         SYMBOL        error
  -------         ENDDO         
  C:758EH         LINE#         86
  C:758EH         LINE#         87
  C:758EH         LINE#         91
  C:7590H         LINE#         92
  C:7592H         LINE#         93
  C:7599H         LINE#         94
  C:759BH         LINE#         95
  C:759EH         LINE#         96
  C:75A5H         LINE#         99
  C:75AFH         LINE#         100
  C:75B2H         LINE#         101
  C:75B2H         LINE#         102
  C:75BBH         LINE#         103
  C:75BDH         LINE#         104
  C:75BDH         LINE#         107
  C:75C7H         LINE#         108
  C:75CAH         LINE#         109
  C:75CAH         LINE#         110
  C:75D3H         LINE#         111
  C:75D5H         LINE#         112
  C:75D5H         LINE#         115
  C:75DDH         LINE#         116
  C:75E0H         LINE#         117
  C:75E0H         LINE#         118
  C:75E9H         LINE#         119
  C:75EBH         LINE#         120
  C:75EBH         LINE#         121
  -------         ENDPROC       CONFIG_CH375
  -------         PROC          CONFIG_FLUKE_MODE
  -------         DO            
  X:0977H         SYMBOL        error
  -------         ENDDO         
  C:6474H         LINE#         123
  C:6474H         LINE#         124
  C:6474H         LINE#         128
  C:6482H         LINE#         129
  C:6485H         LINE#         130
  C:6485H         LINE#         131
  C:64A9H         LINE#         132
  C:64B2H         LINE#         133
  C:64B4H         LINE#         134
  C:64B4H         LINE#         135
  C:64BBH         LINE#         138
  C:64C4H         LINE#         139
BL51 BANKED LINKER/LOCATER V6.22.2.0                                                  01/20/2021  15:22:28  PAGE 50


  C:64D2H         LINE#         142
  C:64D5H         LINE#         143
  C:64D5H         LINE#         144
  C:64F9H         LINE#         145
  C:6502H         LINE#         146
  C:6504H         LINE#         147
  C:6504H         LINE#         148
  C:650BH         LINE#         150
  C:6519H         LINE#         151
  C:651CH         LINE#         152
  C:651CH         LINE#         153
  C:6540H         LINE#         154
  C:6549H         LINE#         155
  C:654BH         LINE#         156
  C:654BH         LINE#         157
  C:6552H         LINE#         158
  -------         ENDPROC       CONFIG_FLUKE_MODE
  -------         PROC          GET_OPER_STATUS
  -------         DO            
  X:097AH         SYMBOL        error
  X:097BH         SYMBOL        rev_num
  X:097CH         SYMBOL        rev
  X:097DH         SYMBOL        us
  -------         ENDDO         
  C:714DH         LINE#         161
  C:714DH         LINE#         162
  C:714DH         LINE#         164
  C:7152H         LINE#         165
  C:7156H         LINE#         166
  C:715BH         LINE#         168
  C:715BH         LINE#         169
  C:715BH         LINE#         170
  C:7160H         LINE#         171
  C:7160H         LINE#         172
  C:7163H         LINE#         173
  C:7169H         LINE#         174
  C:716FH         LINE#         175
  C:716FH         LINE#         177
  C:7175H         LINE#         179
  C:7175H         LINE#         180
  C:7178H         LINE#         181
  C:7186H         LINE#         182
  C:7186H         LINE#         184
  C:7195H         LINE#         185
  C:7195H         LINE#         186
  C:719BH         LINE#         187
  C:719EH         LINE#         188
  C:719EH         LINE#         189
  C:719EH         LINE#         191
  C:71ACH         LINE#         192
  C:71BBH         LINE#         193
  C:71C1H         LINE#         195
  C:71C6H         LINE#         196
  -------         ENDPROC       GET_OPER_STATUS
  -------         PROC          GET_INT_STATUS
  -------         DO            
  X:0B8DH         SYMBOL        error
BL51 BANKED LINKER/LOCATER V6.22.2.0                                                  01/20/2021  15:22:28  PAGE 51


  X:0B8EH         SYMBOL        rev_num
  X:0B8FH         SYMBOL        rev
  X:0B90H         SYMBOL        us
  -------         ENDDO         
  C:7399H         LINE#         198
  C:7399H         LINE#         199
  C:7399H         LINE#         201
  C:739EH         LINE#         202
  C:73A2H         LINE#         203
  C:73A7H         LINE#         205
  C:73A7H         LINE#         206
  C:73A7H         LINE#         207
  C:73ACH         LINE#         208
  C:73ACH         LINE#         209
  C:73AFH         LINE#         210
  C:73B5H         LINE#         211
  C:73BBH         LINE#         212
  C:73BBH         LINE#         214
  C:73C1H         LINE#         216
  C:73C1H         LINE#         217
  C:73C4H         LINE#         218
  C:73D2H         LINE#         219
  C:73D2H         LINE#         221
  C:73E1H         LINE#         222
  C:73E1H         LINE#         223
  C:73E7H         LINE#         224
  C:73EAH         LINE#         225
  C:73EAH         LINE#         226
  C:73EAH         LINE#         228
  C:73F8H         LINE#         229
  C:73FEH         LINE#         231
  C:7403H         LINE#         232
  -------         ENDPROC       GET_INT_STATUS
  -------         PROC          CH375_RESET
  C:813CH         LINE#         273
  C:813CH         LINE#         274
  C:813CH         LINE#         275
  C:8141H         LINE#         276
  C:8148H         LINE#         277
  -------         ENDPROC       CH375_RESET
  -------         PROC          _CH375_USB_MODE
  X:0978H         SYMBOL        mode
  -------         DO            
  X:0979H         SYMBOL        error
  -------         ENDDO         
  C:7E7CH         LINE#         280
  C:7E81H         LINE#         281
  C:7E81H         LINE#         284
  C:7E86H         LINE#         285
  C:7E8EH         LINE#         286
  C:7E96H         LINE#         287
  C:7E9DH         LINE#         289
  C:7EA2H         LINE#         290
  -------         ENDPROC       _CH375_USB_MODE
  -------         PROC          USB_DEV_AUTOSET
  -------         DO            
  D:0007H         SYMBOL        error
BL51 BANKED LINKER/LOCATER V6.22.2.0                                                  01/20/2021  15:22:28  PAGE 52


  -------         ENDDO         
  C:800AH         LINE#         292
  C:800AH         LINE#         293
  C:800AH         LINE#         296
  C:800FH         LINE#         297
  C:8016H         LINE#         298
  C:8019H         LINE#         299
  C:801EH         LINE#         300
  C:8021H         LINE#         302
  C:8021H         LINE#         303
  -------         ENDPROC       USB_DEV_AUTOSET
  -------         PROC          _WR_HOST_OUT_BUF
  X:0B79H         SYMBOL        fluke_cmd
  C:7F7AH         LINE#         362
  C:7F85H         LINE#         363
  C:7F85H         LINE#         364
  C:7F8AH         LINE#         365
  C:7F98H         LINE#         366
  -------         ENDPROC       _WR_HOST_OUT_BUF
  -------         PROC          SET_HOST_POINT_REV
  C:8022H         LINE#         368
  C:8022H         LINE#         369
  C:8022H         LINE#         370
  C:8027H         LINE#         371
  C:802FH         LINE#         372
  C:8036H         LINE#         373
  C:8039H         LINE#         374
  -------         ENDPROC       SET_HOST_POINT_REV
  -------         PROC          SET_HOST_POINT_SEND
  C:803AH         LINE#         376
  C:803AH         LINE#         377
  C:803AH         LINE#         378
  C:803FH         LINE#         379
  C:8047H         LINE#         380
  C:804EH         LINE#         381
  C:8051H         LINE#         382
  -------         ENDPROC       SET_HOST_POINT_SEND
  -------         PROC          _ISSUE_TOKEN
  X:0B8BH         SYMBOL        token_pid
  -------         DO            
  X:0B8CH         SYMBOL        error
  -------         ENDDO         
  C:7893H         LINE#         384
  C:7898H         LINE#         385
  C:7898H         LINE#         388
  C:789DH         LINE#         389
  C:78ACH         LINE#         390
  C:78ACH         LINE#         391
  C:78ACH         LINE#         392
  C:78ACH         LINE#         393
  C:78B1H         LINE#         394
  C:78B3H         LINE#         395
  C:78B3H         LINE#         396
  C:78B3H         LINE#         397
  C:78B3H         LINE#         398
  C:78B8H         LINE#         399
  C:78BAH         LINE#         400
BL51 BANKED LINKER/LOCATER V6.22.2.0                                                  01/20/2021  15:22:28  PAGE 53


  C:78BAH         LINE#         401
  C:78BAH         LINE#         402
  C:78BAH         LINE#         403
  C:78BFH         LINE#         404
  C:78C1H         LINE#         405
  C:78C1H         LINE#         406
  C:78C1H         LINE#         407
  C:78C1H         LINE#         408
  C:78C7H         LINE#         409
  C:78CAH         LINE#         410
  C:78CAH         LINE#         411
  C:78CAH         LINE#         412
  C:78CDH         LINE#         413
  C:78D2H         LINE#         414
  C:78DAH         LINE#         416
  C:78DCH         LINE#         417
  -------         ENDPROC       _ISSUE_TOKEN
  -------         PROC          _SEND_CMD_TO_FLUKE
  D:0001H         SYMBOL        fluke_command
  -------         DO            
  D:0007H         SYMBOL        error
  -------         ENDDO         
  C:8163H         LINE#         419
  C:8163H         LINE#         420
  C:8163H         LINE#         423
  C:8166H         LINE#         424
  C:8169H         LINE#         425
  C:816EH         LINE#         427
  C:816EH         LINE#         428
  -------         ENDPROC       _SEND_CMD_TO_FLUKE
  -------         PROC          _REV_DATA_FROM_CH375
  X:0B82H         SYMBOL        fluke_data
  -------         DO            
  X:0B85H         SYMBOL        error
  X:0B86H         SYMBOL        rev_num
  X:0B87H         SYMBOL        ij
  X:0B89H         SYMBOL        time_cunt
  -------         ENDDO         
  C:5931H         LINE#         430
  C:593CH         LINE#         431
  C:593CH         LINE#         434
  C:5943H         LINE#         437
  C:5947H         LINE#         438
  C:594DH         LINE#         440
  C:595CH         LINE#         442
  C:595FH         LINE#         443
  C:5969H         LINE#         444
  C:596CH         LINE#         445
  C:596CH         LINE#         446
  C:596EH         LINE#         447
  C:596EH         LINE#         449
  C:5973H         LINE#         450
  C:5973H         LINE#         451
  C:5973H         LINE#         452
  C:5978H         LINE#         453
  C:5978H         LINE#         454
  C:597BH         LINE#         455
BL51 BANKED LINKER/LOCATER V6.22.2.0                                                  01/20/2021  15:22:28  PAGE 54


  C:5994H         LINE#         456
  C:599AH         LINE#         457
  C:599AH         LINE#         458
  C:59A5H         LINE#         459
  C:59A5H         LINE#         460
  C:59E4H         LINE#         461
  C:59E4H         LINE#         462
  C:5A1EH         LINE#         463
  C:5A27H         LINE#         464
  C:5A2DH         LINE#         465
  C:5A2FH         LINE#         466
  C:5A2FH         LINE#         467
  C:5A2FH         LINE#         469
  C:5A50H         LINE#         470
  C:5A50H         LINE#         471
  C:5A6BH         LINE#         472
  C:5A6DH         LINE#         473
  C:5A6DH         LINE#         476
  C:5A7BH         LINE#         477
  C:5A93H         LINE#         478
  C:5AA5H         LINE#         479
  C:5AA5H         LINE#         480
  C:5AABH         LINE#         481
  C:5AABH         LINE#         482
  C:5AABH         LINE#         483
  C:5AABH         LINE#         487
  C:5AB0H         LINE#         488
  -------         ENDPROC       _REV_DATA_FROM_CH375
  -------         PROC          _REV_DATA_FROM_FLUKE
  X:0B79H         SYMBOL        data_chan
  -------         DO            
  X:0B7CH         SYMBOL        error
  X:0B7DH         SYMBOL        chan_cunt
  X:0B7EH         SYMBOL        ij
  X:0B80H         SYMBOL        time_cunt
  -------         ENDDO         
  C:662EH         LINE#         491
  C:6639H         LINE#         492
  C:6639H         LINE#         499
  C:663EH         LINE#         500
  C:6644H         LINE#         501
  C:6644H         LINE#         502
  C:6644H         LINE#         503
  C:6665H         LINE#         504
  C:6668H         LINE#         505
  C:6668H         LINE#         506
  C:669CH         LINE#         507
  C:66A5H         LINE#         509
  C:66A7H         LINE#         510
  C:66A7H         LINE#         512
  C:66A7H         LINE#         513
  C:66AFH         LINE#         514
  C:66AFH         LINE#         515
  C:66B7H         LINE#         516
  C:66B9H         LINE#         517
  C:66B9H         LINE#         518
  C:66BFH         LINE#         519
BL51 BANKED LINKER/LOCATER V6.22.2.0                                                  01/20/2021  15:22:28  PAGE 55


  C:66BFH         LINE#         521
  C:66CDH         LINE#         522
  C:66E5H         LINE#         523
  C:66F7H         LINE#         524
  C:66F7H         LINE#         525
  C:66FDH         LINE#         526
  C:66FDH         LINE#         527
  C:66FDH         LINE#         528
  C:66FDH         LINE#         530
  C:6702H         LINE#         531
  -------         ENDPROC       _REV_DATA_FROM_FLUKE
  -------         PROC          _UART4_SEND375CMD
  D:0007H         SYMBOL        cmd
  C:8113H         LINE#         533
  C:8113H         LINE#         534
  C:8113H         LINE#         535
  C:8116H         LINE#         536
  C:8118H         LINE#         537
  C:811DH         LINE#         538
  C:8120H         LINE#         539
  -------         ENDPROC       _UART4_SEND375CMD
  -------         PROC          _UART4_SEND375DATA
  D:0007H         SYMBOL        dat
  C:8121H         LINE#         541
  C:8121H         LINE#         542
  C:8121H         LINE#         543
  C:8124H         LINE#         544
  C:8126H         LINE#         545
  C:812BH         LINE#         546
  C:812EH         LINE#         547
  -------         ENDPROC       _UART4_SEND375DATA
  -------         PROC          _UART4_SENDFLUKECMD
  X:0B7CH         SYMBOL        datad
  -------         DO            
  D:0007H         SYMBOL        lenth
  -------         ENDDO         
  C:752DH         LINE#         549
  C:7538H         LINE#         550
  C:7538H         LINE#         553
  C:7546H         LINE#         554
  C:7547H         LINE#         556
  C:754AH         LINE#         558
  C:754CH         LINE#         559
  C:7551H         LINE#         560
  C:7554H         LINE#         562
  C:7564H         LINE#         563
  C:7564H         LINE#         564
  C:7578H         LINE#         565
  C:757DH         LINE#         566
  C:7580H         LINE#         567
  C:7582H         LINE#         569
  C:7585H         LINE#         570
  C:758AH         LINE#         571
  C:758DH         LINE#         572
  -------         ENDPROC       _UART4_SENDFLUKECMD
  -------         ENDMOD        CFGUO

BL51 BANKED LINKER/LOCATER V6.22.2.0                                                  01/20/2021  15:22:28  PAGE 56


  -------         MODULE        NEWPOWER
  C:0000H         SYMBOL        _ICE_DUMMY_
  B:0080H.1       PUBLIC        NewPower_SCL
  D:0080H         PUBLIC        P0
  D:0090H         PUBLIC        P1
  D:00A0H         PUBLIC        P2
  D:00B0H         PUBLIC        P3
  D:00C0H         PUBLIC        P4
  C:746AH         PUBLIC        _SetVoltage
  D:00C8H         PUBLIC        P5
  D:00E8H         PUBLIC        P6
  D:00F8H         PUBLIC        P7
  C:7B0DH         PUBLIC        _WriteDataToMAX5821
  D:00A8H         PUBLIC        IE
  D:00B8H         PUBLIC        IP
  C:8149H         PUBLIC        I2CDeviceAck
  D:00D8H         PUBLIC        CCON
  C:5411H         PUBLIC        _ReadDataFromADS1100
  D:0098H         PUBLIC        SCON
  D:0088H         PUBLIC        TCON
  C:000EH         PUBLIC        I2CStart
  C:687FH         PUBLIC        _I2CWriteDataToDevice
  C:80E5H         PUBLIC        I2CStop
  C:0006H         PUBLIC        ResetI2CPort
  B:0080H.0       PUBLIC        NewPower_SDA
  D:00D0H         PUBLIC        PSW
  C:5047H         PUBLIC        _ReadOPA544OutputCurrent
  C:81A4H         PUBLIC        nPwrDevice
  -------         PROC          RESETI2CPORT
  C:0006H         LINE#         5
  C:0006H         LINE#         6
  C:0006H         LINE#         7
  C:0008H         LINE#         8
  C:000AH         LINE#         9
  -------         ENDPROC       RESETI2CPORT
  -------         PROC          I2CSTART
  C:000EH         LINE#         11
  C:000EH         LINE#         12
  C:000EH         LINE#         13
  C:0011H         LINE#         14
  C:0018H         LINE#         16
  C:001AH         LINE#         17
  C:001DH         LINE#         18
  C:001FH         LINE#         19
  C:0022H         LINE#         20
  -------         ENDPROC       I2CSTART
  -------         PROC          I2CDEVICEACK
  C:8149H         LINE#         22
  C:8149H         LINE#         23
  C:8149H         LINE#         24
  C:814BH         LINE#         25
  C:814EH         LINE#         26
  C:8150H         LINE#         27
  C:8153H         LINE#         28
  C:8155H         LINE#         29
  -------         ENDPROC       I2CDEVICEACK
  -------         PROC          I2CSTOP
BL51 BANKED LINKER/LOCATER V6.22.2.0                                                  01/20/2021  15:22:28  PAGE 57


  C:80E5H         LINE#         31
  C:80E5H         LINE#         32
  C:80E5H         LINE#         33
  C:80E7H         LINE#         34
  C:80EAH         LINE#         35
  C:80ECH         LINE#         36
  C:80EFH         LINE#         37
  C:80F1H         LINE#         38
  C:80F4H         LINE#         39
  -------         ENDPROC       I2CSTOP
  -------         PROC          _I2CWRITEDATATODEVICE
  X:0993H         SYMBOL        nDeviceAddr
  X:0994H         SYMBOL        nData
  X:0997H         SYMBOL        nDataCunt
  -------         DO            
  X:0998H         SYMBOL        nCunt
  X:0999H         SYMBOL        nBitCunt
  -------         ENDDO         
  C:687FH         LINE#         41
  C:688DH         LINE#         42
  C:688DH         LINE#         45
  C:6890H         LINE#         46
  C:68A2H         LINE#         47
  C:68AFH         LINE#         48
  C:68B1H         LINE#         49
  C:68B3H         LINE#         51
  C:68B3H         LINE#         52
  C:68B5H         LINE#         53
  C:68B5H         LINE#         55
  C:68B8H         LINE#         56
  C:68BAH         LINE#         57
  C:68BDH         LINE#         58
  C:68BFH         LINE#         59
  C:68C7H         LINE#         61
  C:68CAH         LINE#         62
  C:68DAH         LINE#         63
  C:68EAH         LINE#         64
  C:690DH         LINE#         65
  C:690FH         LINE#         66
  C:6911H         LINE#         68
  C:6911H         LINE#         69
  C:6913H         LINE#         70
  C:6913H         LINE#         72
  C:6916H         LINE#         73
  C:6918H         LINE#         74
  C:691BH         LINE#         75
  C:691DH         LINE#         76
  C:6925H         LINE#         78
  C:6928H         LINE#         79
  C:6930H         LINE#         81
  C:6933H         LINE#         82
  -------         ENDPROC       _I2CWRITEDATATODEVICE
  -------         PROC          _READDATAFROMADS1100
  X:0993H         SYMBOL        nReadData
  -------         DO            
  X:0996H         SYMBOL        nAds100Addr
  D:0007H         SYMBOL        nDataCunt
BL51 BANKED LINKER/LOCATER V6.22.2.0                                                  01/20/2021  15:22:28  PAGE 58


  X:0997H         SYMBOL        nBitCunt
  -------         ENDDO         
  C:5411H         LINE#         84
  C:541CH         LINE#         85
  C:541CH         LINE#         88
  C:5428H         LINE#         89
  C:543CH         LINE#         90
  C:543FH         LINE#         92
  C:5445H         LINE#         93
  C:5448H         LINE#         94
  C:545AH         LINE#         95
  C:5467H         LINE#         96
  C:5469H         LINE#         97
  C:546BH         LINE#         99
  C:546BH         LINE#         100
  C:546DH         LINE#         101
  C:546DH         LINE#         103
  C:5470H         LINE#         104
  C:5472H         LINE#         105
  C:5475H         LINE#         106
  C:5477H         LINE#         107
  C:547FH         LINE#         109
  C:5482H         LINE#         110
  C:5494H         LINE#         111
  C:5497H         LINE#         112
  C:5499H         LINE#         113
  C:549CH         LINE#         114
  C:549FH         LINE#         115
  C:54BAH         LINE#         116
  C:54BCH         LINE#         118
  C:54BCH         LINE#         119
  C:54CDH         LINE#         120
  C:54CDH         LINE#         122
  C:54CFH         LINE#         123
  C:54D7H         LINE#         125
  C:54D9H         LINE#         126
  C:54DCH         LINE#         127
  C:54DEH         LINE#         128
  C:54E1H         LINE#         130
  C:54E3H         LINE#         131
  C:54E5H         LINE#         132
  C:54E8H         LINE#         133
  C:54FAH         LINE#         134
  C:54FCH         LINE#         135
  C:54FFH         LINE#         136
  C:5502H         LINE#         137
  C:5522H         LINE#         138
  C:5524H         LINE#         140
  C:5524H         LINE#         141
  C:553AH         LINE#         142
  C:553AH         LINE#         144
  C:553CH         LINE#         145
  C:5544H         LINE#         146
  C:5547H         LINE#         147
  C:5547H         LINE#         148
  C:554FH         LINE#         150
  C:5551H         LINE#         151
BL51 BANKED LINKER/LOCATER V6.22.2.0                                                  01/20/2021  15:22:28  PAGE 59


  C:5554H         LINE#         152
  C:5556H         LINE#         153
  C:5559H         LINE#         155
  C:555BH         LINE#         156
  C:555DH         LINE#         157
  C:5560H         LINE#         158
  C:5572H         LINE#         159
  C:5574H         LINE#         160
  C:5577H         LINE#         161
  C:557AH         LINE#         162
  C:559AH         LINE#         163
  C:559CH         LINE#         165
  C:559CH         LINE#         166
  C:55B2H         LINE#         167
  C:55B2H         LINE#         169
  C:55B4H         LINE#         170
  C:55BCH         LINE#         171
  C:55BFH         LINE#         172
  C:55BFH         LINE#         173
  C:55C7H         LINE#         175
  C:55C9H         LINE#         176
  C:55CCH         LINE#         177
  C:55CEH         LINE#         178
  C:55D1H         LINE#         180
  C:55D3H         LINE#         181
  C:55D6H         LINE#         182
  C:55D8H         LINE#         183
  C:55DBH         LINE#         184
  C:55DDH         LINE#         185
  C:55E0H         LINE#         186
  -------         ENDPROC       _READDATAFROMADS1100
  -------         PROC          _WRITEDATATOMAX5821
  X:097FH         SYMBOL        nDeviceAddr
  D:0004H         SYMBOL        nData
  X:0980H         SYMBOL        nCommand
  -------         DO            
  X:0981H         SYMBOL        nWriteData
  -------         ENDDO         
  C:7B0DH         LINE#         188
  C:7B15H         LINE#         189
  C:7B15H         LINE#         192
  C:7B1AH         LINE#         193
  C:7B26H         LINE#         195
  C:7B3AH         LINE#         196
  C:7B4EH         LINE#         197
  -------         ENDPROC       _WRITEDATATOMAX5821
  -------         PROC          _SETVOLTAGE
  X:0977H         SYMBOL        fVoltage
  -------         DO            
  D:0006H         SYMBOL        nDigtal
  X:097BH         SYMBOL        fVref
  -------         ENDDO         
  C:746AH         LINE#         199
  C:7470H         LINE#         200
  C:7470H         LINE#         202
  C:747AH         LINE#         205
  C:74C0H         LINE#         206
BL51 BANKED LINKER/LOCATER V6.22.2.0                                                  01/20/2021  15:22:28  PAGE 60


  C:74CBH         LINE#         207
  -------         ENDPROC       _SETVOLTAGE
  -------         PROC          _READOPA544OUTPUTCURRENT
  X:0977H         SYMBOL        nAds1100Gain
  X:0978H         SYMBOL        nSampleCunt
  X:0979H         SYMBOL        fIccurent
  -------         DO            
  X:097CH         SYMBOL        nConfigureData
  X:097DH         SYMBOL        nReadDataCunt
  X:097EH         SYMBOL        nReadData
  X:0981H         SYMBOL        nAds100OutData
  X:0983H         SYMBOL        fIcc
  X:0987H         SYMBOL        fIccGain
  X:098BH         SYMBOL        fVref
  X:098FH         SYMBOL        fRSample
  -------         ENDDO         
  C:5047H         LINE#         209
  C:5058H         LINE#         210
  C:5058H         LINE#         212
  C:505FH         LINE#         213
  C:507BH         LINE#         215
  C:508DH         LINE#         216
  C:5093H         LINE#         217
  C:509DH         LINE#         218
  C:509DH         LINE#         220
  C:50A5H         LINE#         221
  C:50AFH         LINE#         222
  C:50AFH         LINE#         224
  C:50B7H         LINE#         225
  C:50C1H         LINE#         226
  C:50C1H         LINE#         228
  C:50C9H         LINE#         229
  C:50D3H         LINE#         230
  C:50D3H         LINE#         232
  C:50DDH         LINE#         233
  C:50EEH         LINE#         234
  C:50F5H         LINE#         235
  C:50FFH         LINE#         236
  C:5112H         LINE#         237
  C:5123H         LINE#         238
  C:5123H         LINE#         239
  C:512CH         LINE#         240
  C:5133H         LINE#         241
  C:5133H         LINE#         242
  C:5133H         LINE#         244
  C:5133H         LINE#         245
  C:513AH         LINE#         246
  C:513AH         LINE#         247
  C:513CH         LINE#         249
  C:5145H         LINE#         251
  C:5152H         LINE#         252
  C:515BH         LINE#         253
  C:5169H         LINE#         255
  C:51CFH         LINE#         256
  C:5229H         LINE#         257
  C:5232H         LINE#         258
  -------         ENDPROC       _READOPA544OUTPUTCURRENT
BL51 BANKED LINKER/LOCATER V6.22.2.0                                                  01/20/2021  15:22:28  PAGE 61


  -------         ENDMOD        NEWPOWER

  -------         MODULE        CRC16_MODBUS
  C:0000H         SYMBOL        _ICE_DUMMY_
  C:6A98H         PUBLIC        _InvertUint16
  C:6BE0H         PUBLIC        _InvertUint8
  C:61A7H         PUBLIC        _CRC16_MODBUS
  -------         PROC          _INVERTUINT8
  X:099FH         SYMBOL        dBuf
  X:09A2H         SYMBOL        srcBuf
  -------         DO            
  X:09A5H         SYMBOL        i
  X:09A7H         SYMBOL        tmp
  -------         ENDDO         
  C:6BE0H         LINE#         3
  C:6BEBH         LINE#         4
  C:6BEBH         LINE#         7
  C:6BF0H         LINE#         8
  C:6C07H         LINE#         9
  C:6C07H         LINE#         10
  C:6C38H         LINE#         11
  C:6C58H         LINE#         12
  C:6C68H         LINE#         13
  C:6C7CH         LINE#         14
  -------         ENDPROC       _INVERTUINT8
  -------         PROC          _INVERTUINT16
  X:099FH         SYMBOL        dBuf
  X:09A2H         SYMBOL        srcBuf
  -------         DO            
  X:09A5H         SYMBOL        i
  X:09A7H         SYMBOL        tmp
  -------         ENDDO         
  C:6A98H         LINE#         16
  C:6AA3H         LINE#         17
  C:6AA3H         LINE#         20
  C:6AAAH         LINE#         21
  C:6AC1H         LINE#         22
  C:6AC1H         LINE#         23
  C:6AF2H         LINE#         24
  C:6B19H         LINE#         25
  C:6B29H         LINE#         26
  C:6B41H         LINE#         27
  -------         ENDPROC       _INVERTUINT16
  -------         PROC          _CRC16_MODBUS
  X:0993H         SYMBOL        puchMsg
  X:0996H         SYMBOL        usDataLen
  -------         DO            
  X:0998H         SYMBOL        wCRCin
  X:099AH         SYMBOL        wCPoly
  X:099CH         SYMBOL        wChar
  X:099DH         SYMBOL        i
  -------         ENDDO         
  C:61A7H         LINE#         29
  C:61B8H         LINE#         30
  C:61B8H         LINE#         31
  C:61BEH         LINE#         32
  C:61C6H         LINE#         33
BL51 BANKED LINKER/LOCATER V6.22.2.0                                                  01/20/2021  15:22:28  PAGE 62


  C:61C9H         LINE#         36
  C:61DAH         LINE#         37
  C:61DAH         LINE#         38
  C:61F1H         LINE#         39
  C:6211H         LINE#         40
  C:621FH         LINE#         41
  C:6237H         LINE#         42
  C:6237H         LINE#         43
  C:623FH         LINE#         44
  C:625DH         LINE#         46
  C:626AH         LINE#         47
  C:627AH         LINE#         48
  C:627AH         LINE#         50
  C:629AH         LINE#         51
  C:62A2H         LINE#         52
  -------         ENDPROC       _CRC16_MODBUS
  -------         ENDMOD        CRC16_MODBUS

  -------         MODULE        CH395CMD
  C:0000H         SYMBOL        _ICE_DUMMY_
  D:0080H         PUBLIC        P0
  D:0090H         PUBLIC        P1
  D:00A0H         PUBLIC        P2
  C:71C7H         PUBLIC        _CH395SetSocketDesIP
  D:00B0H         PUBLIC        P3
  D:00C0H         PUBLIC        P4
  D:00C8H         PUBLIC        P5
  D:00E8H         PUBLIC        P6
  C:7C73H         PUBLIC        CH395_LabCham_Vari_Init
  D:00F8H         PUBLIC        P7
  X:1246H         PUBLIC        ChamberCMDData
  C:7F37H         PUBLIC        keeplive_set
  C:81ACH         PUBLIC        CH395CMDReset
  D:00A8H         PUBLIC        IE
  C:7DFAH         PUBLIC        _CH395SetSocketDesPort
  C:7846H         PUBLIC        _Acqurie_LabCham_ActualTemp
  C:7F5AH         PUBLIC        _CH395SetSocketProtType
  D:00B8H         PUBLIC        IP
  B:00B0H.3       PUBLIC        CH395INT
  C:7E27H         PUBLIC        _CH395SetSocketSourPort
  C:816FH         PUBLIC        CH395CMDGetPHYStatus
  D:00D8H         PUBLIC        CCON
  X:127BH         PUBLIC        MyBuffer
  C:80D2H         PUBLIC        _CH395KeepLiveCNT
  C:796FH         PUBLIC        _CH395OpenSocket
  C:7AC9H         PUBLIC        _CH395CMDGetUnreachIPPT
  X:12ADH         PUBLIC        ScokInf
  X:12C9H         PUBLIC        TCP_connect_falg
  D:0098H         PUBLIC        SCON
  X:12CAH         PUBLIC        func_para
  D:0088H         PUBLIC        TCON
  C:72B7H         PUBLIC        _CH395SendData
  C:7649H         PUBLIC        Init_CH395_LabCham_Connect
  C:7B4FH         PUBLIC        CH395Init
  C:45B2H         PUBLIC        CH395IPAddr
  C:75ECH         PUBLIC        CH395SocketInitOpen
  C:7B90H         PUBLIC        CH395CMDInitCH395
BL51 BANKED LINKER/LOCATER V6.22.2.0                                                  01/20/2021  15:22:28  PAGE 63


  C:7C06H         PUBLIC        _CH395GetRecvLength
  C:79FDH         PUBLIC        _CH395CMDSetIPAddr
  X:12CEH         PUBLIC        CH395Inf
  C:6FD5H         PUBLIC        _Set_LabChamber_Temp
  X:12F1H         PUBLIC        TCP_timeout_flag
  C:6DADH         PUBLIC        Set_LabChamber_Off
  C:7CA9H         PUBLIC        _mStopIfError
  C:45BEH         PUBLIC        Socket0DesIP
  C:45BAH         PUBLIC        CH395IPMask
  C:6C7DH         PUBLIC        CH395GlobalInterrupt
  C:78DDH         PUBLIC        InitCH395InfParam
  C:7750H         PUBLIC        _CH395KeepLiveINTVL
  C:7A85H         PUBLIC        _CH395CMDSetMASKAddr
  C:6EC5H         PUBLIC        _CH395GetRecvData
  C:5790H         PUBLIC        _Set_LabCMD_format
  C:817AH         PUBLIC        CH395CMDGetGlobIntStatus
  C:45C2H         PUBLIC        Socket0DesPort
  B:00A0H.2       PUBLIC        SPI_CS
  C:45B6H         PUBLIC        CH395GWIPAddr
  C:79B6H         PUBLIC        _CH395TCPConnect
  C:76FAH         PUBLIC        _CH395KeepLiveIDLE
  C:7A41H         PUBLIC        _CH395CMDSetGWIPAddr
  X:12F2H         PUBLIC        rev_over_flag
  C:7FEFH         PUBLIC        _CH395GetSocketInt
  C:7CDCH         PUBLIC        _SendCMDToLabChamber
  C:8185H         PUBLIC        CH395GetCmdStatus
  C:5AB1H         PUBLIC        _CH395SocketInterrupt
  C:45C4H         PUBLIC        Socket0SourPort
  X:12F3H         PUBLIC        TCP_timeout_cunt
  C:76A4H         PUBLIC        _CH395SetStartPara
  C:8052H         PUBLIC        _CH395CMDCheckExist
  C:7F99H         PUBLIC        _CH395SetKeepLive
  C:77F6H         PUBLIC        InitSocketParam
  D:00D0H         PUBLIC        PSW
  C:6F50H         PUBLIC        Request_LabChamber_State
  -------         PROC          CH395_LABCHAM_VARI_INIT
  C:7C73H         LINE#         41
  C:7C73H         LINE#         42
  C:7C73H         LINE#         43
  C:7C78H         LINE#         44
  C:7C7CH         LINE#         45
  C:7C7EH         LINE#         46
  C:7C80H         LINE#         47
  C:7C8AH         LINE#         48
  C:7C99H         LINE#         49
  C:7CA8H         LINE#         50
  -------         ENDPROC       CH395_LABCHAM_VARI_INIT
  -------         PROC          _MSTOPIFERROR
  D:0007H         SYMBOL        iError
  C:7CA9H         LINE#         58
  C:7CA9H         LINE#         59
  C:7CA9H         LINE#         60
  C:7CACH         LINE#         61
  C:7CC9H         LINE#         62
  C:7CD2H         LINE#         63
  C:7CD2H         LINE#         64
  C:7CD2H         LINE#         65
BL51 BANKED LINKER/LOCATER V6.22.2.0                                                  01/20/2021  15:22:28  PAGE 64


  C:7CD9H         LINE#         66
  C:7CDBH         LINE#         67
  -------         ENDPROC       _MSTOPIFERROR
  -------         PROC          KEEPLIVE_SET
  C:7F37H         LINE#         75
  C:7F37H         LINE#         76
  C:7F37H         LINE#         77
  C:7F3EH         LINE#         78
  C:7F43H         LINE#         79
  C:7F4EH         LINE#         80
  C:7F59H         LINE#         81
  -------         ENDPROC       KEEPLIVE_SET
  -------         PROC          INITCH395INFPARAM
  C:78DDH         LINE#         89
  C:78DDH         LINE#         90
  C:78DDH         LINE#         91
  C:78ECH         LINE#         92
  C:78FFH         LINE#         93
  C:7912H         LINE#         94
  C:7925H         LINE#         96
  -------         ENDPROC       INITCH395INFPARAM
  -------         PROC          INITSOCKETPARAM
  C:77F6H         LINE#         105
  C:77F6H         LINE#         106
  C:77F6H         LINE#         107
  C:7805H         LINE#         108
  C:7818H         LINE#         109
  C:7829H         LINE#         110
  C:783AH         LINE#         111
  C:7840H         LINE#         112
  C:7845H         LINE#         113
  -------         ENDPROC       INITSOCKETPARAM
  -------         PROC          CH395INIT
  -------         DO            
  X:0979H         SYMBOL        i
  -------         ENDDO         
  C:7B4FH         LINE#         122
  C:7B4FH         LINE#         123
  C:7B4FH         LINE#         126
  C:7B59H         LINE#         127
  C:7B61H         LINE#         129
  C:7B6AH         LINE#         131
  C:7B73H         LINE#         132
  C:7B7CH         LINE#         133
  C:7B85H         LINE#         134
  C:7B8DH         LINE#         135
  C:7B8FH         LINE#         136
  -------         ENDPROC       CH395INIT
  -------         PROC          CH395SOCKETINITOPEN
  -------         DO            
  X:0979H         SYMBOL        i
  -------         ENDDO         
  C:75ECH         LINE#         145
  C:75ECH         LINE#         146
  C:75ECH         LINE#         150
  C:75F3H         LINE#         151
  C:75FEH         LINE#         152
BL51 BANKED LINKER/LOCATER V6.22.2.0                                                  01/20/2021  15:22:28  PAGE 65


  C:760BH         LINE#         153
  C:7618H         LINE#         154
  C:7621H         LINE#         155
  C:762BH         LINE#         156
  C:7630H         LINE#         157
  C:7639H         LINE#         158
  C:7643H         LINE#         159
  C:7648H         LINE#         160
  -------         ENDPROC       CH395SOCKETINITOPEN
  -------         PROC          _CH395SOCKETINTERRUPT
  X:09ADH         SYMBOL        sockindex
  -------         DO            
  X:09AEH         SYMBOL        sock_int_socket
  X:09AFH         SYMBOL        i
  X:09B0H         SYMBOL        len
  -------         ENDDO         
  C:5AB1H         LINE#         169
  C:5AB6H         LINE#         170
  C:5AB6H         LINE#         175
  C:5AC0H         LINE#         176
  C:5AC4H         LINE#         177
  C:5AC4H         LINE#         178
  C:5ACDH         LINE#         179
  C:5ACDH         LINE#         180
  C:5AD4H         LINE#         181
  C:5AD4H         LINE#         182
  C:5ADDH         LINE#         183
  C:5ADDH         LINE#         184
  C:5AE7H         LINE#         185
  C:5AE7H         LINE#         186
  C:5AF7H         LINE#         187
  C:5B01H         LINE#         188
  C:5B01H         LINE#         189
  C:5B0BH         LINE#         191
  C:5B0BH         LINE#         192
  C:5B1AH         LINE#         193
  C:5B30H         LINE#         194
  C:5B4AH         LINE#         195
  C:5B70H         LINE#         196
  C:5B79H         LINE#         197
  C:5B82H         LINE#         198
  C:5B82H         LINE#         199
  C:5B89H         LINE#         200
  C:5B89H         LINE#         201
  C:5B92H         LINE#         202
  C:5B98H         LINE#         212
  C:5B98H         LINE#         213
  C:5B98H         LINE#         214
  C:5B98H         LINE#         215
  C:5B98H         LINE#         216
  C:5B9FH         LINE#         217
  C:5B9FH         LINE#         218
  C:5BA8H         LINE#         225
  C:5BBCH         LINE#         226
  C:5BBCH         LINE#         227
  C:5BC3H         LINE#         228
  C:5BCCH         LINE#         229
BL51 BANKED LINKER/LOCATER V6.22.2.0                                                  01/20/2021  15:22:28  PAGE 66


  C:5BD9H         LINE#         230
  C:5BDEH         LINE#         231
  C:5BE7H         LINE#         232
  C:5BEFH         LINE#         233
  C:5BF7H         LINE#         234
  C:5BFDH         LINE#         235
  C:5C0DH         LINE#         236
  C:5C0DH         LINE#         237
  C:5C0DH         LINE#         238
  -------         ENDPROC       _CH395SOCKETINTERRUPT
  -------         PROC          CH395GLOBALINTERRUPT
  -------         DO            
  X:09A0H         SYMBOL        init_status
  X:09A1H         SYMBOL        i
  X:09A3H         SYMBOL        buf
  -------         ENDDO         
  C:6C7DH         LINE#         247
  C:6C7DH         LINE#         248
  C:6C7DH         LINE#         253
  C:6C85H         LINE#         254
  C:6C89H         LINE#         255
  C:6C89H         LINE#         256
  C:6C92H         LINE#         257
  C:6C9BH         LINE#         258
  C:6CA4H         LINE#         259
  C:6CA4H         LINE#         260
  C:6CA4H         LINE#         261
  C:6CA4H         LINE#         262
  C:6CA4H         LINE#         263
  C:6CABH         LINE#         264
  C:6CABH         LINE#         265
  C:6CB4H         LINE#         266
  C:6CBFH         LINE#         267
  C:6CCBH         LINE#         268
  C:6CCBH         LINE#         269
  C:6CD4H         LINE#         277
  C:6CD4H         LINE#         278
  C:6CE0H         LINE#         279
  C:6CE0H         LINE#         280
  C:6CE9H         LINE#         281
  C:6CE9H         LINE#         283
  C:6CE9H         LINE#         284
  C:6CF0H         LINE#         285
  C:6CF0H         LINE#         286
  C:6CF5H         LINE#         287
  C:6CF5H         LINE#         288
  C:6CFCH         LINE#         289
  C:6CFCH         LINE#         290
  C:6D01H         LINE#         291
  C:6D01H         LINE#         292
  C:6D08H         LINE#         293
  C:6D08H         LINE#         294
  C:6D0DH         LINE#         295
  C:6D0DH         LINE#         296
  C:6D14H         LINE#         297
  C:6D14H         LINE#         298
  C:6D19H         LINE#         299
BL51 BANKED LINKER/LOCATER V6.22.2.0                                                  01/20/2021  15:22:28  PAGE 67


  C:6D19H         LINE#         300
  -------         ENDPROC       CH395GLOBALINTERRUPT
  -------         PROC          _SET_LABCMD_FORMAT
  X:0983H         SYMBOL        ftemp
  -------         DO            
  X:0987H         SYMBOL        j
  X:0988H         SYMBOL        Cham_neg_data
  -------         ENDDO         
  C:5790H         LINE#         303
  C:5796H         LINE#         304
  C:5796H         LINE#         308
  C:57B0H         LINE#         309
  C:57DCH         LINE#         310
  C:57F6H         LINE#         311
  C:5822H         LINE#         312
  C:583AH         LINE#         313
  C:5866H         LINE#         315
  C:5866H         LINE#         316
  C:587DH         LINE#         317
  C:58A8H         LINE#         318
  C:58C4H         LINE#         319
  C:58C4H         LINE#         320
  C:58D7H         LINE#         321
  C:58D7H         LINE#         322
  C:58F2H         LINE#         323
  C:58FAH         LINE#         324
  C:58FAH         LINE#         326
  C:58FAH         LINE#         327
  C:590DH         LINE#         328
  C:590DH         LINE#         329
  C:5928H         LINE#         330
  C:5930H         LINE#         331
  C:5930H         LINE#         332
  C:5930H         LINE#         333
  -------         ENDPROC       _SET_LABCMD_FORMAT
  -------         PROC          _SET_LABCHAMBER_TEMP
  D:0004H         SYMBOL        set_temp
  -------         DO            
  X:097FH         SYMBOL        ij
  X:0981H         SYMBOL        time_cunt
  -------         ENDDO         
  C:6FD5H         LINE#         335
  C:6FD5H         LINE#         336
  C:6FD5H         LINE#         337
  C:6FE0H         LINE#         339
  C:6FE3H         LINE#         340
  C:6FECH         LINE#         341
  C:6FECH         LINE#         342
  C:6FECH         LINE#         343
  C:6FF2H         LINE#         344
  C:6FFAH         LINE#         345
  C:6FFAH         LINE#         346
  C:6FFBH         LINE#         347
  C:7002H         LINE#         348
  C:7002H         LINE#         349
  C:700BH         LINE#         350
  C:700DH         LINE#         351
BL51 BANKED LINKER/LOCATER V6.22.2.0                                                  01/20/2021  15:22:28  PAGE 68


  C:700DH         LINE#         352
  C:700DH         LINE#         354
  C:701BH         LINE#         355
  C:7033H         LINE#         356
  C:7042H         LINE#         357
  C:7042H         LINE#         358
  C:704BH         LINE#         359
  C:704DH         LINE#         360
  C:704DH         LINE#         361
  C:704DH         LINE#         362
  C:7054H         LINE#         363
  -------         ENDPROC       _SET_LABCHAMBER_TEMP
  -------         PROC          SET_LABCHAMBER_OFF
  -------         DO            
  X:0979H         SYMBOL        ij
  X:097BH         SYMBOL        time_cunt
  -------         ENDDO         
  C:6DADH         LINE#         365
  C:6DADH         LINE#         366
  C:6DADH         LINE#         367
  C:6DB8H         LINE#         369
  C:6DCFH         LINE#         370
  C:6DD8H         LINE#         371
  C:6DD8H         LINE#         372
  C:6DD8H         LINE#         373
  C:6DDEH         LINE#         374
  C:6DE6H         LINE#         375
  C:6DE6H         LINE#         376
  C:6DE7H         LINE#         377
  C:6DEEH         LINE#         378
  C:6DEEH         LINE#         379
  C:6DF7H         LINE#         380
  C:6DF8H         LINE#         381
  C:6DF8H         LINE#         382
  C:6DF8H         LINE#         384
  C:6E06H         LINE#         385
  C:6E1EH         LINE#         386
  C:6E2DH         LINE#         387
  C:6E2DH         LINE#         388
  C:6E36H         LINE#         389
  C:6E38H         LINE#         390
  C:6E38H         LINE#         391
  C:6E38H         LINE#         392
  -------         ENDPROC       SET_LABCHAMBER_OFF
  -------         PROC          REQUEST_LABCHAMBER_STATE
  -------         DO            
  X:099CH         SYMBOL        ij
  X:099EH         SYMBOL        time_cunt
  -------         ENDDO         
  C:6F50H         LINE#         394
  C:6F50H         LINE#         395
  C:6F50H         LINE#         396
  C:6F5BH         LINE#         398
  C:6F72H         LINE#         399
  C:6F7BH         LINE#         400
  C:6F7BH         LINE#         401
  C:6F7BH         LINE#         402
BL51 BANKED LINKER/LOCATER V6.22.2.0                                                  01/20/2021  15:22:28  PAGE 69


  C:6F81H         LINE#         403
  C:6F89H         LINE#         404
  C:6F89H         LINE#         405
  C:6F8AH         LINE#         406
  C:6F93H         LINE#         407
  C:6F94H         LINE#         408
  C:6F94H         LINE#         410
  C:6FA2H         LINE#         411
  C:6FBAH         LINE#         412
  C:6FC9H         LINE#         413
  C:6FC9H         LINE#         414
  C:6FD2H         LINE#         415
  C:6FD4H         LINE#         416
  C:6FD4H         LINE#         417
  C:6FD4H         LINE#         418
  -------         ENDPROC       REQUEST_LABCHAMBER_STATE
  -------         PROC          _ACQURIE_LABCHAM_ACTUALTEMP
  X:0993H         SYMBOL        pData
  -------         DO            
  D:0007H         SYMBOL        i
  X:0996H         SYMBOL        actual_temp
  -------         ENDDO         
  C:7846H         LINE#         420
  C:7851H         LINE#         421
  C:7851H         LINE#         424
  C:7854H         LINE#         425
  C:7860H         LINE#         426
  C:7860H         LINE#         427
  C:7878H         LINE#         428
  C:787BH         LINE#         429
  C:7892H         LINE#         430
  -------         ENDPROC       _ACQURIE_LABCHAM_ACTUALTEMP
  -------         PROC          INIT_CH395_LABCHAM_CONNECT
  -------         DO            
  D:0007H         SYMBOL        i
  -------         ENDDO         
  C:7649H         LINE#         432
  C:7649H         LINE#         433
  C:7649H         LINE#         436
  C:764CH         LINE#         437
  C:7653H         LINE#         440
  C:7656H         LINE#         441
  C:7659H         LINE#         442
  C:765CH         LINE#         445
  C:765CH         LINE#         446
  C:765CH         LINE#         447
  C:7664H         LINE#         448
  C:7664H         LINE#         449
  C:766AH         LINE#         450
  C:766CH         LINE#         452
  C:766CH         LINE#         453
  C:766FH         LINE#         454
  C:766FH         LINE#         455
  C:766FH         LINE#         456
  C:766FH         LINE#         459
  C:7672H         LINE#         460
  C:7675H         LINE#         462
BL51 BANKED LINKER/LOCATER V6.22.2.0                                                  01/20/2021  15:22:28  PAGE 70


  C:7675H         LINE#         463
  C:7675H         LINE#         464
  C:767BH         LINE#         465
  C:7681H         LINE#         466
  C:7687H         LINE#         467
  C:7687H         LINE#         468
  C:7690H         LINE#         469
  C:7690H         LINE#         470
  C:7690H         LINE#         471
  C:7697H         LINE#         472
  C:7699H         LINE#         473
  C:7699H         LINE#         474
  C:7699H         LINE#         475
  C:76A0H         LINE#         477
  C:76A3H         LINE#         478
  -------         ENDPROC       INIT_CH395_LABCHAM_CONNECT
  -------         PROC          _SENDCMDTOLABCHAMBER
  X:09A0H         SYMBOL        cmdbuf
  -------         DO            
  D:0006H         SYMBOL        cmd_len
  -------         ENDDO         
  C:7CDCH         LINE#         484
  C:7CE7H         LINE#         485
  C:7CE7H         LINE#         488
  C:7CF5H         LINE#         489
  C:7D0DH         LINE#         490
  -------         ENDPROC       _SENDCMDTOLABCHAMBER
  -------         PROC          CH395CMDRESET
  C:81ACH         LINE#         499
  C:81ACH         LINE#         500
  C:81ACH         LINE#         501
  C:81B1H         LINE#         502
  C:81B3H         LINE#         503
  -------         ENDPROC       CH395CMDRESET
  -------         PROC          _CH395CMDCHECKEXIST
  X:097AH         SYMBOL        testdata
  -------         DO            
  D:0007H         SYMBOL        i
  -------         ENDDO         
  C:8052H         LINE#         542
  C:8057H         LINE#         543
  C:8057H         LINE#         546
  C:805CH         LINE#         547
  C:8064H         LINE#         548
  C:8067H         LINE#         549
  C:8069H         LINE#         550
  C:8069H         LINE#         551
  -------         ENDPROC       _CH395CMDCHECKEXIST
  -------         PROC          CH395CMDGETPHYSTATUS
  -------         DO            
  D:0007H         SYMBOL        i
  -------         ENDDO         
  C:816FH         LINE#         575
  C:816FH         LINE#         576
  C:816FH         LINE#         579
  C:8174H         LINE#         580
  C:8177H         LINE#         581
BL51 BANKED LINKER/LOCATER V6.22.2.0                                                  01/20/2021  15:22:28  PAGE 71


  C:8179H         LINE#         582
  C:8179H         LINE#         583
  -------         ENDPROC       CH395CMDGETPHYSTATUS
  -------         PROC          CH395CMDGETGLOBINTSTATUS
  -------         DO            
  D:0007H         SYMBOL        init_status
  -------         ENDDO         
  C:817AH         LINE#         592
  C:817AH         LINE#         593
  C:817AH         LINE#         596
  C:817FH         LINE#         597
  C:8182H         LINE#         598
  C:8184H         LINE#         599
  C:8184H         LINE#         600
  -------         ENDPROC       CH395CMDGETGLOBINTSTATUS
  -------         PROC          CH395CMDINITCH395
  -------         DO            
  X:097AH         SYMBOL        i
  X:097BH         SYMBOL        s
  -------         ENDDO         
  C:7B90H         LINE#         609
  C:7B90H         LINE#         610
  C:7B90H         LINE#         611
  C:7B95H         LINE#         612
  C:7B97H         LINE#         614
  C:7B9CH         LINE#         615
  C:7B9EH         LINE#         616
  C:7B9EH         LINE#         617
  C:7B9EH         LINE#         618
  C:7BA5H         LINE#         619
  C:7BADH         LINE#         620
  C:7BB2H         LINE#         621
  C:7BC6H         LINE#         622
  C:7BC6H         LINE#         623
  C:7BCBH         LINE#         624
  -------         ENDPROC       CH395CMDINITCH395
  -------         PROC          CH395GETCMDSTATUS
  -------         DO            
  D:0007H         SYMBOL        i
  -------         ENDDO         
  C:8185H         LINE#         651
  C:8185H         LINE#         652
  C:8185H         LINE#         655
  C:818AH         LINE#         656
  C:818DH         LINE#         657
  C:818FH         LINE#         658
  C:818FH         LINE#         659
  -------         ENDPROC       CH395GETCMDSTATUS
  -------         PROC          _CH395CMDSETIPADDR
  X:097AH         SYMBOL        ipaddr
  -------         DO            
  X:097DH         SYMBOL        i
  -------         ENDDO         
  C:79FDH         LINE#         668
  C:7A08H         LINE#         669
  C:7A08H         LINE#         672
  C:7A0DH         LINE#         673
BL51 BANKED LINKER/LOCATER V6.22.2.0                                                  01/20/2021  15:22:28  PAGE 72


  C:7A3EH         LINE#         674
  C:7A40H         LINE#         675
  -------         ENDPROC       _CH395CMDSETIPADDR
  -------         PROC          _CH395CMDSETGWIPADDR
  X:097AH         SYMBOL        gwipaddr
  -------         DO            
  X:097DH         SYMBOL        i
  -------         ENDDO         
  C:7A41H         LINE#         684
  C:7A4CH         LINE#         685
  C:7A4CH         LINE#         688
  C:7A51H         LINE#         689
  C:7A82H         LINE#         690
  C:7A84H         LINE#         691
  -------         ENDPROC       _CH395CMDSETGWIPADDR
  -------         PROC          _CH395CMDSETMASKADDR
  X:097AH         SYMBOL        maskaddr
  -------         DO            
  X:097DH         SYMBOL        i
  -------         ENDDO         
  C:7A85H         LINE#         700
  C:7A90H         LINE#         701
  C:7A90H         LINE#         704
  C:7A95H         LINE#         705
  C:7AC6H         LINE#         706
  C:7AC8H         LINE#         707
  -------         ENDPROC       _CH395CMDSETMASKADDR
  -------         PROC          _CH395CMDGETUNREACHIPPT
  X:09ADH         SYMBOL        list
  -------         DO            
  X:09B0H         SYMBOL        i
  -------         ENDDO         
  C:7AC9H         LINE#         778
  C:7AD4H         LINE#         779
  C:7AD4H         LINE#         782
  C:7AD9H         LINE#         783
  C:7AEBH         LINE#         784
  C:7AEBH         LINE#         785
  C:7B02H         LINE#         786
  C:7B0AH         LINE#         787
  C:7B0CH         LINE#         788
  -------         ENDPROC       _CH395CMDGETUNREACHIPPT
  -------         PROC          _CH395SETSOCKETDESIP
  X:097AH         SYMBOL        sockindex
  X:097BH         SYMBOL        ipaddr
  C:71C7H         LINE#         819
  C:71D5H         LINE#         820
  C:71D5H         LINE#         821
  C:71DAH         LINE#         822
  C:71E2H         LINE#         823
  C:71F9H         LINE#         824
  C:7210H         LINE#         825
  C:7227H         LINE#         826
  C:723EH         LINE#         827
  C:7240H         LINE#         828
  -------         ENDPROC       _CH395SETSOCKETDESIP
  -------         PROC          _CH395SETSOCKETPROTTYPE
BL51 BANKED LINKER/LOCATER V6.22.2.0                                                  01/20/2021  15:22:28  PAGE 73


  X:097AH         SYMBOL        sockindex
  X:097BH         SYMBOL        prottype
  C:7F5AH         LINE#         838
  C:7F62H         LINE#         839
  C:7F62H         LINE#         840
  C:7F67H         LINE#         841
  C:7F6FH         LINE#         842
  C:7F77H         LINE#         843
  C:7F79H         LINE#         844
  -------         ENDPROC       _CH395SETSOCKETPROTTYPE
  -------         PROC          _CH395SETSOCKETDESPORT
  X:097AH         SYMBOL        sockindex
  X:097BH         SYMBOL        desprot
  C:7DFAH         LINE#         855
  C:7E05H         LINE#         856
  C:7E05H         LINE#         857
  C:7E0AH         LINE#         858
  C:7E12H         LINE#         859
  C:7E1CH         LINE#         860
  C:7E24H         LINE#         861
  C:7E26H         LINE#         862
  -------         ENDPROC       _CH395SETSOCKETDESPORT
  -------         PROC          _CH395SETSOCKETSOURPORT
  X:097AH         SYMBOL        sockindex
  X:097BH         SYMBOL        surprot
  C:7E27H         LINE#         872
  C:7E32H         LINE#         873
  C:7E32H         LINE#         874
  C:7E37H         LINE#         875
  C:7E3FH         LINE#         876
  C:7E49H         LINE#         877
  C:7E51H         LINE#         878
  C:7E53H         LINE#         879
  -------         ENDPROC       _CH395SETSOCKETSOURPORT
  -------         PROC          _CH395SENDDATA
  X:09A3H         SYMBOL        sockindex
  X:09A4H         SYMBOL        databuf
  X:09A7H         SYMBOL        len
  -------         DO            
  X:09A9H         SYMBOL        i
  -------         ENDDO         
  C:72B7H         LINE#         921
  C:72C5H         LINE#         922
  C:72C5H         LINE#         925
  C:72CAH         LINE#         926
  C:72D2H         LINE#         927
  C:72DCH         LINE#         928
  C:72E4H         LINE#         930
  C:7300H         LINE#         931
  C:7300H         LINE#         932
  C:7317H         LINE#         933
  C:7327H         LINE#         934
  C:7329H         LINE#         935
  -------         ENDPROC       _CH395SENDDATA
  -------         PROC          _CH395GETRECVLENGTH
  X:09B2H         SYMBOL        sockindex
  -------         DO            
BL51 BANKED LINKER/LOCATER V6.22.2.0                                                  01/20/2021  15:22:28  PAGE 74


  X:09B3H         SYMBOL        i
  -------         ENDDO         
  C:7C06H         LINE#         944
  C:7C0BH         LINE#         945
  C:7C0BH         LINE#         948
  C:7C10H         LINE#         949
  C:7C18H         LINE#         950
  C:7C23H         LINE#         951
  C:7C35H         LINE#         952
  C:7C37H         LINE#         953
  C:7C3CH         LINE#         954
  -------         ENDPROC       _CH395GETRECVLENGTH
  -------         PROC          _CH395GETRECVDATA
  X:09B2H         SYMBOL        sockindex
  X:09B3H         SYMBOL        len
  X:09B5H         SYMBOL        pbuf
  -------         DO            
  X:09B8H         SYMBOL        i
  -------         ENDDO         
  C:6EC5H         LINE#         979
  C:6ED9H         LINE#         980
  C:6ED9H         LINE#         982
  C:6EE3H         LINE#         983
  C:6EE8H         LINE#         984
  C:6EF0H         LINE#         985
  C:6EFAH         LINE#         986
  C:6F02H         LINE#         987
  C:6F05H         LINE#         988
  C:6F21H         LINE#         989
  C:6F21H         LINE#         990
  C:6F33H         LINE#         991
  C:6F3DH         LINE#         992
  C:6F4DH         LINE#         993
  C:6F4FH         LINE#         994
  -------         ENDPROC       _CH395GETRECVDATA
  -------         PROC          _CH395OPENSOCKET
  X:09B2H         SYMBOL        sockindex
  -------         DO            
  X:09B3H         SYMBOL        i
  X:09B4H         SYMBOL        s
  -------         ENDDO         
  C:796FH         LINE#         1049
  C:7974H         LINE#         1050
  C:7974H         LINE#         1051
  C:7977H         LINE#         1052
  C:7979H         LINE#         1053
  C:797EH         LINE#         1054
  C:7986H         LINE#         1055
  C:7988H         LINE#         1056
  C:7988H         LINE#         1057
  C:7988H         LINE#         1058
  C:798FH         LINE#         1059
  C:7997H         LINE#         1060
  C:799CH         LINE#         1061
  C:79B0H         LINE#         1062
  C:79B0H         LINE#         1063
  C:79B5H         LINE#         1064
BL51 BANKED LINKER/LOCATER V6.22.2.0                                                  01/20/2021  15:22:28  PAGE 75


  -------         ENDPROC       _CH395OPENSOCKET
  -------         PROC          _CH395TCPCONNECT
  X:09B2H         SYMBOL        sockindex
  -------         DO            
  X:09B3H         SYMBOL        i
  X:09B4H         SYMBOL        s
  -------         ENDDO         
  C:79B6H         LINE#         1097
  C:79BBH         LINE#         1098
  C:79BBH         LINE#         1099
  C:79BEH         LINE#         1100
  C:79C0H         LINE#         1101
  C:79C5H         LINE#         1102
  C:79CDH         LINE#         1103
  C:79CFH         LINE#         1104
  C:79CFH         LINE#         1105
  C:79CFH         LINE#         1106
  C:79D6H         LINE#         1107
  C:79DEH         LINE#         1108
  C:79E3H         LINE#         1109
  C:79F7H         LINE#         1110
  C:79F7H         LINE#         1111
  C:79FCH         LINE#         1112
  -------         ENDPROC       _CH395TCPCONNECT
  -------         PROC          _CH395GETSOCKETINT
  X:09B2H         SYMBOL        sockindex
  -------         DO            
  D:0007H         SYMBOL        intstatus
  -------         ENDDO         
  C:7FEFH         LINE#         1169
  C:7FF4H         LINE#         1170
  C:7FF4H         LINE#         1172
  C:7FF9H         LINE#         1173
  C:8001H         LINE#         1174
  C:8004H         LINE#         1175
  C:8007H         LINE#         1176
  C:8009H         LINE#         1177
  C:8009H         LINE#         1178
  -------         ENDPROC       _CH395GETSOCKETINT
  -------         PROC          _CH395SETSTARTPARA
  X:138FH         SYMBOL        mdata
  C:76A4H         LINE#         1437
  C:76AAH         LINE#         1438
  C:76AAH         LINE#         1439
  C:76AFH         LINE#         1440
  C:76BDH         LINE#         1441
  C:76CDH         LINE#         1442
  C:76E3H         LINE#         1443
  C:76F9H         LINE#         1444
  -------         ENDPROC       _CH395SETSTARTPARA
  -------         PROC          _CH395SETKEEPLIVE
  X:0979H         SYMBOL        sockindex
  X:097AH         SYMBOL        cmd
  C:7F99H         LINE#         1472
  C:7FA1H         LINE#         1473
  C:7FA1H         LINE#         1474
  C:7FA6H         LINE#         1475
BL51 BANKED LINKER/LOCATER V6.22.2.0                                                  01/20/2021  15:22:28  PAGE 76


  C:7FAEH         LINE#         1476
  C:7FB6H         LINE#         1477
  -------         ENDPROC       _CH395SETKEEPLIVE
  -------         PROC          _CH395KEEPLIVECNT
  X:0979H         SYMBOL        cnt
  C:80D2H         LINE#         1486
  C:80D7H         LINE#         1487
  C:80D7H         LINE#         1488
  C:80DCH         LINE#         1489
  C:80E4H         LINE#         1490
  -------         ENDPROC       _CH395KEEPLIVECNT
  -------         PROC          _CH395KEEPLIVEIDLE
  X:0979H         SYMBOL        idle
  C:76FAH         LINE#         1499
  C:7700H         LINE#         1500
  C:7700H         LINE#         1501
  C:7705H         LINE#         1502
  C:7713H         LINE#         1503
  C:7723H         LINE#         1504
  C:7739H         LINE#         1505
  C:774FH         LINE#         1506
  -------         ENDPROC       _CH395KEEPLIVEIDLE
  -------         PROC          _CH395KEEPLIVEINTVL
  X:0979H         SYMBOL        intvl
  C:7750H         LINE#         1515
  C:7756H         LINE#         1516
  C:7756H         LINE#         1517
  C:775BH         LINE#         1518
  C:7769H         LINE#         1519
  C:7779H         LINE#         1520
  C:778FH         LINE#         1521
  C:77A5H         LINE#         1522
  -------         ENDPROC       _CH395KEEPLIVEINTVL
  -------         ENDMOD        CH395CMD

  -------         MODULE        ?C?FPADD
  C:2138H         PUBLIC        ?C?FPADD
  C:2134H         PUBLIC        ?C?FPSUB
  -------         ENDMOD        ?C?FPADD

  -------         MODULE        ?C?FPMUL
  C:2229H         PUBLIC        ?C?FPMUL
  -------         ENDMOD        ?C?FPMUL

  -------         MODULE        ?C?FPDIV
  C:2332H         PUBLIC        ?C?FPDIV
  -------         ENDMOD        ?C?FPDIV

  -------         MODULE        ?C?FPCMP
  C:23D1H         PUBLIC        ?C?FPCMP
  C:23CFH         PUBLIC        ?C?FPCMP3
  -------         ENDMOD        ?C?FPCMP

  -------         MODULE        ?C?FCAST
  C:2452H         PUBLIC        ?C?FCASTC
  C:244DH         PUBLIC        ?C?FCASTI
  C:2448H         PUBLIC        ?C?FCASTL
BL51 BANKED LINKER/LOCATER V6.22.2.0                                                  01/20/2021  15:22:28  PAGE 77


  -------         ENDMOD        ?C?FCAST

  -------         MODULE        ?C?CASTF
  C:2486H         PUBLIC        ?C?CASTF
  -------         ENDMOD        ?C?CASTF

  -------         MODULE        PRINTF
  X:0B8BH         PUBLIC        ?_PRINTF?BYTE
  X:0B8BH         PUBLIC        ?_SPRINTF?BYTE
  C:3DA8H         PUBLIC        _PRINTF
  C:3DA2H         PUBLIC        _SPRINTF
  -------         ENDMOD        PRINTF

  -------         MODULE        FABS
  C:8156H         PUBLIC        _FABS
  -------         ENDMOD        FABS

  -------         MODULE        ATOF
  C:7926H         PUBLIC        _ATOF
  -------         ENDMOD        ATOF

  -------         MODULE        ?C?FPROUND
  C:2507H         PUBLIC        ?C?FPROUND
  -------         ENDMOD        ?C?FPROUND

  -------         MODULE        ?C?FPCONVERT
  C:2544H         PUBLIC        ?C?FPCONVERT
  -------         ENDMOD        ?C?FPCONVERT

  -------         MODULE        ?C?FPNEG
  C:2649H         PUBLIC        ?C?FPNEG
  -------         ENDMOD        ?C?FPNEG

  -------         MODULE        ?C?FTNPWR
  C:268AH         PUBLIC        ?C?FTNPWR
  -------         ENDMOD        ?C?FTNPWR

  -------         MODULE        ?C?COPY
  C:279AH         PUBLIC        ?C?COPY
  -------         ENDMOD        ?C?COPY

  -------         MODULE        ?C?SCDIV
  C:27C0H         PUBLIC        ?C?SCDIV
  -------         ENDMOD        ?C?SCDIV

  -------         MODULE        ?C?CLDPTR
  C:27E2H         PUBLIC        ?C?CLDPTR
  -------         ENDMOD        ?C?CLDPTR

  -------         MODULE        ?C?CLDOPTR
  C:27FBH         PUBLIC        ?C?CLDOPTR
  -------         ENDMOD        ?C?CLDOPTR

  -------         MODULE        ?C?CSTPTR
  C:2828H         PUBLIC        ?C?CSTPTR
  -------         ENDMOD        ?C?CSTPTR

BL51 BANKED LINKER/LOCATER V6.22.2.0                                                  01/20/2021  15:22:28  PAGE 78


  -------         MODULE        ?C?CSTOPTR
  C:283AH         PUBLIC        ?C?CSTOPTR
  -------         ENDMOD        ?C?CSTOPTR

  -------         MODULE        ?C?IMUL
  C:285CH         PUBLIC        ?C?IMUL
  -------         ENDMOD        ?C?IMUL

  -------         MODULE        ?C?IILDX
  C:286EH         PUBLIC        ?C?IILDX
  -------         ENDMOD        ?C?IILDX

  -------         MODULE        ?C?ILDIX
  C:2884H         PUBLIC        ?C?ILDIX
  -------         ENDMOD        ?C?ILDIX

  -------         MODULE        ?C?ILDPTR
  C:289AH         PUBLIC        ?C?ILDPTR
  -------         ENDMOD        ?C?ILDPTR

  -------         MODULE        ?C?ILDOPTR
  C:28C5H         PUBLIC        ?C?ILDOPTR
  -------         ENDMOD        ?C?ILDOPTR

  -------         MODULE        ?C?ISTPTR
  C:28FDH         PUBLIC        ?C?ISTPTR
  -------         ENDMOD        ?C?ISTPTR

  -------         MODULE        ?C?ISTOPTR
  C:291CH         PUBLIC        ?C?ISTOPTR
  -------         ENDMOD        ?C?ISTOPTR

  -------         MODULE        ?C?LNEG
  C:2949H         PUBLIC        ?C?LNEG
  -------         ENDMOD        ?C?LNEG

  -------         MODULE        ?C?ULSHR
  C:2957H         PUBLIC        ?C?ULSHR
  -------         ENDMOD        ?C?ULSHR

  -------         MODULE        ?C?LLDPTR
  C:296AH         PUBLIC        ?C?LLDPTR
  -------         ENDMOD        ?C?LLDPTR

  -------         MODULE        ?C?LLDOPTR
  C:298AH         PUBLIC        ?C?LLDOPTR
  -------         ENDMOD        ?C?LLDOPTR

  -------         MODULE        ?C?LSTPTR
  C:29BAH         PUBLIC        ?C?LSTPTR
  -------         ENDMOD        ?C?LSTPTR

  -------         MODULE        ?C?LSTOPTR
  C:29D4H         PUBLIC        ?C?LSTOPTR
  -------         ENDMOD        ?C?LSTOPTR

  -------         MODULE        ?C?LLDCODE
BL51 BANKED LINKER/LOCATER V6.22.2.0                                                  01/20/2021  15:22:28  PAGE 79


  C:29F8H         PUBLIC        ?C?LLDCODE
  -------         ENDMOD        ?C?LLDCODE

  -------         MODULE        ?C?LLDCODE0
  C:2A08H         PUBLIC        ?C?LLDCODE0
  -------         ENDMOD        ?C?LLDCODE0

  -------         MODULE        ?C?LSTXDATA
  C:2A18H         PUBLIC        ?C?LSTXDATA
  -------         ENDMOD        ?C?LSTXDATA

  -------         MODULE        ?C?LSTKXDATA
  C:2A24H         PUBLIC        ?C?LSTKXDATA
  -------         ENDMOD        ?C?LSTKXDATA

  -------         MODULE        ?C?LSTKPTR
  C:2A55H         PUBLIC        ?C?LSTKPTR
  -------         ENDMOD        ?C?LSTKPTR

  -------         MODULE        ?C?OFFXADD
  C:2A6FH         PUBLIC        ?C?OFFXADD
  -------         ENDMOD        ?C?OFFXADD

  -------         MODULE        ?C?PLDIXDATA
  C:2A7BH         PUBLIC        ?C?PLDIXDATA
  -------         ENDMOD        ?C?PLDIXDATA

  -------         MODULE        ?C?PSTXDATA
  C:2A92H         PUBLIC        ?C?PSTXDATA
  -------         ENDMOD        ?C?PSTXDATA

  -------         MODULE        ?C?CCASE
  C:2A9BH         PUBLIC        ?C?CCASE
  -------         ENDMOD        ?C?CCASE

  -------         MODULE        PUTCHAR
  C:7EA3H         PUBLIC        _PUTCHAR
  -------         ENDMOD        PUTCHAR

  -------         MODULE        ISSPACE
  C:80ABH         PUBLIC        _isspace
  -------         ENDMOD        ISSPACE

  -------         MODULE        STRLEN
  C:8096H         PUBLIC        _STRLEN
  -------         ENDMOD        STRLEN

  -------         MODULE        STRSTR
  X:0989H         PUBLIC        ?_strstr?BYTE
  C:6703H         PUBLIC        _strstr
  -------         ENDMOD        STRSTR

  -------         MODULE        ATOI
  C:6553H         PUBLIC        _atoi
  -------         ENDMOD        ATOI

  -------         MODULE        ?C?MEMSET
BL51 BANKED LINKER/LOCATER V6.22.2.0                                                  01/20/2021  15:22:28  PAGE 80


  C:2AC1H         PUBLIC        ?C?MEMSET
  -------         ENDMOD        ?C?MEMSET

  -------         MODULE        ?C?LLDIDATA
  C:2AEDH         PUBLIC        ?C?LLDIDATA
  -------         ENDMOD        ?C?LLDIDATA

  -------         MODULE        ?C?LLDXDATA
  C:2AF9H         PUBLIC        ?C?LLDXDATA
  -------         ENDMOD        ?C?LLDXDATA

  -------         MODULE        ?C?LLDPDATA
  C:2B05H         PUBLIC        ?C?LLDPDATA
  -------         ENDMOD        ?C?LLDPDATA

  -------         MODULE        ?C?LSTIDATA
  C:2B11H         PUBLIC        ?C?LSTIDATA
  -------         ENDMOD        ?C?LSTIDATA

  -------         MODULE        ?C?LSTPDATA
  C:2B1DH         PUBLIC        ?C?LSTPDATA
  -------         ENDMOD        ?C?LSTPDATA

  -------         MODULE        ?C?LSTKIDATA
  C:2B29H         PUBLIC        ?C?LSTKIDATA
  -------         ENDMOD        ?C?LSTKIDATA

  -------         MODULE        ?C?LSTKPDATA
  C:2B42H         PUBLIC        ?C?LSTKPDATA
  -------         ENDMOD        ?C?LSTKPDATA

  -------         MODULE        ISDIGIT
  C:8104H         PUBLIC        _isdigit
  -------         ENDMOD        ISDIGIT

*** WARNING L16: UNCALLED SEGMENT, IGNORED FOR OVERLAY PROCESS
    SEGMENT: ?PR?_USARTINTERRUPT?DATATRANS

*** WARNING L16: UNCALLED SEGMENT, IGNORED FOR OVERLAY PROCESS
    SEGMENT: ?PR?DELAY_60US?DELAYTIME

*** WARNING L16: UNCALLED SEGMENT, IGNORED FOR OVERLAY PROCESS
    SEGMENT: ?PR?_WAITCHAMBERSTABLE?CHAMBER

*** WARNING L16: UNCALLED SEGMENT, IGNORED FOR OVERLAY PROCESS
    SEGMENT: ?PR?_CH395SETSTARTPARA?CH395CMD

*** WARNING L15: MULTIPLE CALL TO SEGMENT
    SEGMENT: ?PR?_STRSTR?STRSTR
    CALLER1: ?PR?RECIEVEPRESSKEYCOMMANDFROMPC?SYSTEMINIT
    CALLER2: ?C_C51STARTUP

Program Size: data=23.7 xdata=5014 code=33218
LINK/LOCATE RUN COMPLETE.  5 WARNING(S),  0 ERROR(S)
